Certificate:
    Data:
        Version: 3 (0x2)
        Serial Number: 4097 (0x1001)
    Signature Algorithm: sha256WithRSAEncryption
        Issuer: O=NodeOPCUA, CN=NodeOPCUA
        Validity
            Not Before: Jul 25 13:51:49 2019 GMT
            Not After : Jul 24 13:51:49 2020 GMT
        Subject: O=NodeOPCUA, CN=NodeOPCUA
        Subject Public Key Info:
            Public Key Algorithm: rsaEncryption
                Public-Key: (1024 bit)
                Modulus:
                    00:c8:0b:60:df:10:55:a4:ee:a5:a2:8a:c9:a1:13:
                    cd:f8:80:1e:a6:35:bb:55:3e:c2:b3:f4:41:35:f4:
                    e5:64:00:a2:ea:c8:ac:29:39:74:59:5f:11:70:46:
                    ff:2c:68:ad:80:4f:49:0e:19:3c:95:39:04:a9:9b:
                    3a:83:c0:f1:44:f9:a2:43:91:6b:57:a8:d7:5d:b4:
                    4a:54:96:c7:02:ae:1c:83:a6:72:a1:08:9c:8b:ab:
                    ca:8c:2e:21:a4:58:94:59:e1:80:1a:15:fa:2c:7b:
                    8d:35:7e:90:67:a5:3c:27:a9:6e:e0:af:6f:b6:c2:
                    e6:38:76:af:9e:f8:a6:87:55
                Exponent: 65537 (0x10001)
        X509v3 extensions:
            X509v3 Basic Constraints: critical
                CA:FALSE
            X509v3 Subject Key Identifier: 
                47:06:0D:15:C1:28:7F:87:2F:B6:73:AC:A4:99:E8:A5:C8:9D:E8:F1
            X509v3 Authority Key Identifier: 
                keyid:47:06:0D:15:C1:28:7F:87:2F:B6:73:AC:A4:99:E8:A5:C8:9D:E8:F1
                DirName:/O=NodeOPCUA/CN=NodeOPCUA
                serial:10:01

            X509v3 Subject Alternative Name: 
                URI:urn:8c8590cbfaea.ant.amazon.com:NodeOPCUA-Client, DNS:localhost, DNS:8c8590cbfaea.ant.amazon.com
            Netscape Comment: 
                OpenSSL Generated Certificate
            X509v3 Key Usage: critical
                Digital Signature, Non Repudiation, Key Encipherment, Data Encipherment, Key Agreement, Certificate Sign
            X509v3 Extended Key Usage: critical
                TLS Web Server Authentication, TLS Web Client Authentication
    Signature Algorithm: sha256WithRSAEncryption
         c5:9d:b7:00:81:ae:f6:1e:99:6b:22:61:51:b3:9d:87:65:5e:
         21:74:6c:2a:f0:22:3d:48:63:76:2a:d4:2b:eb:2d:5e:01:c8:
         84:f0:8f:e0:55:e6:4c:d3:ef:3f:3c:2b:e4:be:bb:b9:74:5c:
         0e:3d:31:7b:d9:fb:6c:5b:ea:d3:71:30:cf:e6:85:76:44:2b:
         c8:f5:07:a2:41:bd:3d:6c:8a:61:d1:ed:82:19:92:b9:58:c2:
         0e:d5:58:78:b9:66:8e:c9:8f:a3:1f:c2:0f:b2:dc:bf:cd:18:
         ba:01:66:8b:40:d6:a0:ed:69:07:60:4b:cb:ec:07:23:ca:e9:
         cb:40
-----BEGIN CERTIFICATE-----
MIIDFjCCAn+gAwIBAgICEAEwDQYJKoZIhvcNAQELBQAwKDESMBAGA1UEChMJTm9k
ZU9QQ1VBMRIwEAYDVQQDEwlOb2RlT1BDVUEwIhgPMjAxOTA3MjUxMzUxNDlaGA8y
MDIwMDcyNDEzNTE0OVowKDESMBAGA1UEChMJTm9kZU9QQ1VBMRIwEAYDVQQDEwlO
b2RlT1BDVUEwgZ8wDQYJKoZIhvcNAQEBBQADgY0AMIGJAoGBAMgLYN8QVaTupaKK
yaETzfiAHqY1u1U+wrP0QTX05WQAourIrCk5dFlfEXBG/yxorYBPSQ4ZPJU5BKmb
OoPA8UT5okORa1eo1120SlSWxwKuHIOmcqEInIuryowuIaRYlFnhgBoV+ix7jTV+
kGelPCepbuCvb7bC5jh2r574podVAgMBAAGjggFJMIIBRTAMBgNVHRMBAf8EAjAA
MB0GA1UdDgQWBBRHBg0VwSh/hy+2c6ykmeilyJ3o8TBRBgNVHSMESjBIgBRHBg0V
wSh/hy+2c6ykmeilyJ3o8aEspCowKDESMBAGA1UEChMJTm9kZU9QQ1VBMRIwEAYD
VQQDEwlOb2RlT1BDVUGCAhABMGMGA1UdEQRcMFqGMHVybjo4Yzg1OTBjYmZhZWEu
YW50LmFtYXpvbi5jb206Tm9kZU9QQ1VBLUNsaWVudIIJbG9jYWxob3N0ghs4Yzg1
OTBjYmZhZWEuYW50LmFtYXpvbi5jb20wLAYJYIZIAYb4QgENBB8WHU9wZW5TU0wg
R2VuZXJhdGVkIENlcnRpZmljYXRlMA4GA1UdDwEB/wQEAwIC/DAgBgNVHSUBAf8E
FjAUBggrBgEFBQcDAQYIKwYBBQUHAwIwDQYJKoZIhvcNAQELBQADgYEAxZ23AIGu
9h6ZayJhUbOdh2VeIXRsKvAiPUhjdirUK+stXgHIhPCP4FXmTNPvPzwr5L67uXRc
Dj0xe9n7bFvq03Ewz+aFdkQryPUHokG9PWyKYdHtghmSuVjCDtVYeLlmjsmPox/C
D7Lcv80YugFmi0DWoO1pB2BLy+wHI8rpy0A=
-----END CERTIFICATE-----
