Certificate Request:
    Data:
        Version: 0 (0x0)
        Subject: C=FR, O=NodeOPCUA, CN=NodeOPCUA
        Subject Public Key Info:
            Public Key Algorithm: rsaEncryption
                Public-Key: (1024 bit)
                Modulus:
                    00:c8:0b:60:df:10:55:a4:ee:a5:a2:8a:c9:a1:13:
                    cd:f8:80:1e:a6:35:bb:55:3e:c2:b3:f4:41:35:f4:
                    e5:64:00:a2:ea:c8:ac:29:39:74:59:5f:11:70:46:
                    ff:2c:68:ad:80:4f:49:0e:19:3c:95:39:04:a9:9b:
                    3a:83:c0:f1:44:f9:a2:43:91:6b:57:a8:d7:5d:b4:
                    4a:54:96:c7:02:ae:1c:83:a6:72:a1:08:9c:8b:ab:
                    ca:8c:2e:21:a4:58:94:59:e1:80:1a:15:fa:2c:7b:
                    8d:35:7e:90:67:a5:3c:27:a9:6e:e0:af:6f:b6:c2:
                    e6:38:76:af:9e:f8:a6:87:55
                Exponent: 65537 (0x10001)
        Attributes:
        Requested Extensions:
            X509v3 Basic Constraints: 
                CA:FALSE
            X509v3 Key Usage: critical
                Certificate Sign, CRL Sign
            X509v3 Subject Alternative Name: 
                URI:undefined
    Signature Algorithm: sha256WithRSAEncryption
         49:f1:3f:00:f6:8b:28:81:cf:87:69:b2:28:1f:00:ca:31:ca:
         98:d9:b9:13:34:7a:c4:89:b8:08:ab:43:16:12:2f:df:5d:c9:
         84:4c:80:13:73:47:fa:23:7c:74:09:3b:93:79:cb:a0:a1:88:
         92:d1:64:af:f9:43:82:c9:fa:57:1e:4a:1e:2b:b7:b1:bf:37:
         34:00:61:bf:49:90:aa:1a:53:cf:ab:10:da:1c:53:b3:71:80:
         94:c8:5b:c8:5a:3e:01:d8:bc:9c:f3:0f:50:e6:5d:d1:5b:05:
         91:29:61:00:7a:bc:26:b4:0e:c8:24:21:84:b8:59:17:fc:01:
         0e:0e
-----BEGIN CERTIFICATE REQUEST-----
MIIBtzCCASACAQAwNTELMAkGA1UEBhMCRlIxEjAQBgNVBAoMCU5vZGVPUENVQTES
MBAGA1UEAwwJTm9kZU9QQ1VBMIGfMA0GCSqGSIb3DQEBAQUAA4GNADCBiQKBgQDI
C2DfEFWk7qWiismhE834gB6mNbtVPsKz9EE19OVkAKLqyKwpOXRZXxFwRv8saK2A
T0kOGTyVOQSpmzqDwPFE+aJDkWtXqNddtEpUlscCrhyDpnKhCJyLq8qMLiGkWJRZ
4YAaFfose401fpBnpTwnqW7gr2+2wuY4dq+e+KaHVQIDAQABoEIwQAYJKoZIhvcN
AQkOMTMwMTAJBgNVHRMEAjAAMA4GA1UdDwEB/wQEAwIBBjAUBgNVHREEDTALhgl1
bmRlZmluZWQwDQYJKoZIhvcNAQELBQADgYEASfE/APaLKIHPh2myKB8AyjHKmNm5
EzR6xIm4CKtDFhIv313JhEyAE3NH+iN8dAk7k3nLoKGIktFkr/lDgsn6Vx5KHiu3
sb83NABhv0mQqhpTz6sQ2hxTs3GAlMhbyFo+Adi8nPMPUOZd0VsFkSlhAHq8JrQO
yCQhhLhZF/wBDg4=
-----END CERTIFICATE REQUEST-----
