Certificate:
    Data:
        Version: 3 (0x2)
        Serial Number: 4096 (0x1000)
    Signature Algorithm: sha256WithRSAEncryption
        Issuer: C=FR, ST=IDF, L=Paris, O=Local NODE-OPCUA Certificate Authority, CN=NodeOPCUA-CA
        Validity
            Not Before: Jul 25 13:51:49 2019 GMT
            Not After : Jul 24 13:51:49 2020 GMT
        Subject: C=FR, O=NodeOPCUA, CN=NodeOPCUA
        Subject Public Key Info:
            Public Key Algorithm: rsaEncryption
                Public-Key: (1024 bit)
                Modulus:
                    00:c8:0b:60:df:10:55:a4:ee:a5:a2:8a:c9:a1:13:
                    cd:f8:80:1e:a6:35:bb:55:3e:c2:b3:f4:41:35:f4:
                    e5:64:00:a2:ea:c8:ac:29:39:74:59:5f:11:70:46:
                    ff:2c:68:ad:80:4f:49:0e:19:3c:95:39:04:a9:9b:
                    3a:83:c0:f1:44:f9:a2:43:91:6b:57:a8:d7:5d:b4:
                    4a:54:96:c7:02:ae:1c:83:a6:72:a1:08:9c:8b:ab:
                    ca:8c:2e:21:a4:58:94:59:e1:80:1a:15:fa:2c:7b:
                    8d:35:7e:90:67:a5:3c:27:a9:6e:e0:af:6f:b6:c2:
                    e6:38:76:af:9e:f8:a6:87:55
                Exponent: 65537 (0x10001)
        X509v3 extensions:
            X509v3 Basic Constraints: critical
                CA:FALSE
            X509v3 Subject Key Identifier: 
                47:06:0D:15:C1:28:7F:87:2F:B6:73:AC:A4:99:E8:A5:C8:9D:E8:F1
            X509v3 Authority Key Identifier: 
                keyid:88:40:74:59:B6:E0:CB:B5:F1:BE:11:42:3E:83:44:87:64:48:DE:1A
                DirName:/C=FR/ST=IDF/L=Paris/O=Local NODE-OPCUA Certificate Authority/CN=NodeOPCUA-CA
                serial:A3:98:DF:C2:C5:F1:D7:B5

            X509v3 Subject Alternative Name: 
                URI:urn:8c8590cbfaea.ant.amazon.com:NodeOPCUA-Client, DNS:localhost, DNS:8c8590cbfaea.ant.amazon.com
            Netscape Comment: 
                OpenSSL Generated Certificate
            X509v3 Key Usage: critical
                Digital Signature, Non Repudiation, Key Encipherment, Data Encipherment, Key Agreement, Certificate Sign
            X509v3 Extended Key Usage: critical
                TLS Web Server Authentication, TLS Web Client Authentication
    Signature Algorithm: sha256WithRSAEncryption
         cb:1f:b8:cd:0a:6d:7c:25:b4:52:44:39:b2:2b:fd:d4:ab:95:
         c8:e2:1e:4f:06:5f:1c:1e:27:94:60:af:a5:1b:88:8d:49:ba:
         04:73:ac:9d:6a:ec:e8:22:60:66:66:25:29:42:05:00:7b:57:
         90:90:20:12:61:6b:b2:83:26:e1:63:9d:2c:b9:73:63:54:bc:
         d8:f6:1f:7e:06:49:e4:63:ff:f4:eb:ef:2e:30:78:94:c1:ec:
         00:01:c1:15:95:0e:8d:7d:24:31:c8:0f:06:11:53:79:1b:3d:
         51:51:43:e9:bd:98:ae:11:96:44:ca:7f:e3:b9:47:32:91:23:
         0f:35:52:e6:d7:02:34:2d:9e:7e:d0:e7:e4:ae:25:2c:46:fb:
         4c:eb:ae:2b:be:a7:f7:5b:4d:fa:77:11:11:65:bc:71:e5:a4:
         ec:5d:b2:a7:81:0b:83:d3:10:58:91:87:ee:ff:eb:11:c6:09:
         f4:b3:85:82:8a:cd:f4:50:ef:2e:34:c4:77:27:e2:de:40:b2:
         52:7e:a7:4e:59:ba:d4:e2:85:48:bd:f6:ad:92:11:6e:55:15:
         ca:a3:9e:75:b6:47:8a:49:08:4a:e6:76:59:4e:22:07:d3:7e:
         dc:ac:d7:46:86:3c:77:05:b3:5a:d4:2c:b1:20:fb:ee:89:7f:
         01:e2:f8:da
-----BEGIN CERTIFICATE-----
MIIERDCCAyygAwIBAgICEAAwDQYJKoZIhvcNAQELBQAwczELMAkGA1UEBhMCRlIx
DDAKBgNVBAgTA0lERjEOMAwGA1UEBxMFUGFyaXMxLzAtBgNVBAoTJkxvY2FsIE5P
REUtT1BDVUEgQ2VydGlmaWNhdGUgQXV0aG9yaXR5MRUwEwYDVQQDEwxOb2RlT1BD
VUEtQ0EwIhgPMjAxOTA3MjUxMzUxNDlaGA8yMDIwMDcyNDEzNTE0OVowNTELMAkG
A1UEBhMCRlIxEjAQBgNVBAoMCU5vZGVPUENVQTESMBAGA1UEAwwJTm9kZU9QQ1VB
MIGfMA0GCSqGSIb3DQEBAQUAA4GNADCBiQKBgQDIC2DfEFWk7qWiismhE834gB6m
NbtVPsKz9EE19OVkAKLqyKwpOXRZXxFwRv8saK2AT0kOGTyVOQSpmzqDwPFE+aJD
kWtXqNddtEpUlscCrhyDpnKhCJyLq8qMLiGkWJRZ4YAaFfose401fpBnpTwnqW7g
r2+2wuY4dq+e+KaHVQIDAQABo4IBnjCCAZowDAYDVR0TAQH/BAIwADAdBgNVHQ4E
FgQURwYNFcEof4cvtnOspJnopcid6PEwgaUGA1UdIwSBnTCBmoAUiEB0Wbbgy7Xx
vhFCPoNEh2RI3hqhd6R1MHMxCzAJBgNVBAYTAkZSMQwwCgYDVQQIEwNJREYxDjAM
BgNVBAcTBVBhcmlzMS8wLQYDVQQKEyZMb2NhbCBOT0RFLU9QQ1VBIENlcnRpZmlj
YXRlIEF1dGhvcml0eTEVMBMGA1UEAxMMTm9kZU9QQ1VBLUNBggkAo5jfwsXx17Uw
YwYDVR0RBFwwWoYwdXJuOjhjODU5MGNiZmFlYS5hbnQuYW1hem9uLmNvbTpOb2Rl
T1BDVUEtQ2xpZW50gglsb2NhbGhvc3SCGzhjODU5MGNiZmFlYS5hbnQuYW1hem9u
LmNvbTAsBglghkgBhvhCAQ0EHxYdT3BlblNTTCBHZW5lcmF0ZWQgQ2VydGlmaWNh
dGUwDgYDVR0PAQH/BAQDAgL8MCAGA1UdJQEB/wQWMBQGCCsGAQUFBwMBBggrBgEF
BQcDAjANBgkqhkiG9w0BAQsFAAOCAQEAyx+4zQptfCW0UkQ5siv91KuVyOIeTwZf
HB4nlGCvpRuIjUm6BHOsnWrs6CJgZmYlKUIFAHtXkJAgEmFrsoMm4WOdLLlzY1S8
2PYffgZJ5GP/9OvvLjB4lMHsAAHBFZUOjX0kMcgPBhFTeRs9UVFD6b2YrhGWRMp/
47lHMpEjDzVS5tcCNC2eftDn5K4lLEb7TOuuK76n91tN+ncREWW8ceWk7F2yp4EL
g9MQWJGH7v/rEcYJ9LOFgorN9FDvLjTEdyfi3kCyUn6nTlm61OKFSL32rZIRblUV
yqOedbZHikkISuZ2WU4iB9N+3KzXRoY8dwWzWtQssSD77ol/AeL42g==
-----END CERTIFICATE-----
-----BEGIN CERTIFICATE-----
MIIE3TCCA8WgAwIBAgIJAKOY38LF8de1MA0GCSqGSIb3DQEBCwUAMHMxCzAJBgNV
BAYTAkZSMQwwCgYDVQQIEwNJREYxDjAMBgNVBAcTBVBhcmlzMS8wLQYDVQQKEyZM
b2NhbCBOT0RFLU9QQ1VBIENlcnRpZmljYXRlIEF1dGhvcml0eTEVMBMGA1UEAxMM
Tm9kZU9QQ1VBLUNBMB4XDTE5MDcyNjEzNTE0OVoXDTI5MDcyMzEzNTE0OVowczEL
MAkGA1UEBhMCRlIxDDAKBgNVBAgTA0lERjEOMAwGA1UEBxMFUGFyaXMxLzAtBgNV
BAoTJkxvY2FsIE5PREUtT1BDVUEgQ2VydGlmaWNhdGUgQXV0aG9yaXR5MRUwEwYD
VQQDEwxOb2RlT1BDVUEtQ0EwggEiMA0GCSqGSIb3DQEBAQUAA4IBDwAwggEKAoIB
AQDZ7xm1PvclO37lpybX41+d7vm/JCgmmKQCKIVc32gnHpuQ52/ipWJBLZGU0s8g
uLXtYPSuaiL72h40YCWpkphVvHwzX1TrHwN5rVr59NZY131DV/x+q8WDCXZzwWHV
/sw2n9BeueDDen5+D17D9JynwwyEiHa7PF8/cFYH3s17vihveOVSEq+fcb7Byh+8
kYbUjo5VuTtL7zyH8XyfIu4WPBub22aDn58ZgKNrtrMBZW2MrzTwHwrVh7w6j7G0
5rjjnK0lhPDCxLiA8kE3OF/oWssksQMZe9C/8I5yZVBeoQbu4WeI5UFdDDkswY6V
1W1I++uKLdzSU46lyoGAF8QLAgMBAAGjggFyMIIBbjAdBgNVHQ4EFgQUiEB0Wbbg
y7XxvhFCPoNEh2RI3howgaUGA1UdIwSBnTCBmoAUiEB0Wbbgy7XxvhFCPoNEh2RI
3hqhd6R1MHMxCzAJBgNVBAYTAkZSMQwwCgYDVQQIEwNJREYxDjAMBgNVBAcTBVBh
cmlzMS8wLQYDVQQKEyZMb2NhbCBOT0RFLU9QQ1VBIENlcnRpZmljYXRlIEF1dGhv
cml0eTEVMBMGA1UEAxMMTm9kZU9QQ1VBLUNBggkAo5jfwsXx17UwDAYDVR0TBAUw
AwEB/zAOBgNVHQ8BAf8EBAMCAQYwVwYJYIZIAYb4QgENBEoWSENBIENlcnRpZmlj
YXRlIGdlbmVyYXRlZCBieSBOb2RlLU9QQ1VBIENlcnRpZmljYXRlIHV0aWxpdHkg
dXNpbmcgb3BlbnNzbDAuBgNVHR8EJzAlMCOgIaAfhh1odHRwOi8vbG9jYWxob3N0
Ojg5MDAvY3JsLnBlbTANBgkqhkiG9w0BAQsFAAOCAQEAs1LHT1SWIaRDvEmv7GvC
QZpox70x077f9FuQGfaDkhyjPgbyPNyEYtKpRiMakLAj0axx+WUCPAhhUfFOCfZY
LOzgutoJC4ETiXgwnvjG6CMAO/oUeHdHErlF8frrZOaEoYZFoBdlNyfZggSbQz7M
uPYV7q1PEHjoMi+fKm1FR6R3EaK2uIT0jYYWS3UYCWPPG/4c8Zb8Rj+LCRCdVBg0
HueHJu8PCfMWNH4597AMFDxGv33veCAaG+nPTWwM6jtjGm9F1L88BRVJ9y4iqtOC
YAKbCGsjrtiWKGZ2id1zXvI0GWj9S6nMJ8661QgK0jESuW0ORBbTri1EngzgIva8
/w==
-----END CERTIFICATE-----
