Certificate Request:
    Data:
        Version: 0 (0x0)
        Subject: C=FR, O=NodeOPCUA, CN=NodeOPCUA
        Subject Public Key Info:
            Public Key Algorithm: rsaEncryption
                Public-Key: (2048 bit)
                Modulus:
                    00:b1:66:9b:55:8e:fb:11:ca:8a:52:40:2e:c6:36:
                    72:6a:73:43:eb:47:03:42:62:d3:56:bf:a5:53:dc:
                    a0:83:49:b0:06:bd:6b:b9:a8:5e:d0:2e:e4:ae:46:
                    41:45:d4:30:f7:4b:10:f1:a1:45:09:98:cf:1d:bf:
                    9a:50:1a:fe:e9:f2:c0:c2:00:3b:d6:cd:c5:02:58:
                    b3:34:92:be:24:b3:4f:33:ce:0e:60:59:f3:06:44:
                    94:66:da:e0:ba:d4:86:23:fc:2a:91:a0:fb:7b:69:
                    91:1c:9a:60:7e:a8:9b:8c:e9:a7:dd:6b:fe:24:79:
                    59:4b:94:5e:1c:f0:e3:be:1e:45:e5:bf:ef:0b:e5:
                    17:d3:9d:21:e3:7a:3a:17:31:ba:93:0d:27:fc:fc:
                    d0:25:b0:5a:35:e6:ca:2d:56:2f:91:25:17:08:30:
                    ca:bb:a1:36:ce:76:2d:d6:de:a9:31:b1:fa:c7:5c:
                    b2:76:97:b8:37:d5:a6:26:45:04:c5:a3:88:af:54:
                    4e:63:ba:16:f9:36:6a:13:c6:fa:76:08:0d:b0:3e:
                    96:ad:01:8b:78:09:16:41:67:74:86:ef:d7:a4:ef:
                    01:ad:bc:c2:13:4e:fa:a6:20:f1:39:91:df:20:45:
                    95:e2:7e:a5:4a:66:88:bd:ec:d0:f1:a6:cd:3b:78:
                    4c:41
                Exponent: 65537 (0x10001)
        Attributes:
        Requested Extensions:
            X509v3 Basic Constraints: 
                CA:FALSE
            X509v3 Key Usage: critical
                Certificate Sign, CRL Sign
            X509v3 Subject Alternative Name: 
                URI:undefined
    Signature Algorithm: sha256WithRSAEncryption
         8b:a4:cb:b1:26:08:28:1d:07:48:24:6c:a4:17:99:8f:42:28:
         36:2a:f1:66:6c:54:f5:6d:69:03:8f:3a:3f:29:d3:4e:3e:ea:
         16:a9:a0:e5:67:4e:99:d7:64:0c:fa:33:fd:18:59:83:ee:6e:
         37:e6:62:04:af:7a:17:50:6b:53:c2:51:f1:f5:2f:9a:31:19:
         29:bd:e0:6e:77:15:6a:99:14:f6:95:10:17:ce:a4:35:98:38:
         9a:de:98:4b:e0:95:53:10:04:22:c7:2d:43:ea:39:3f:be:16:
         bf:a2:dc:83:e8:c1:46:56:42:29:d1:90:67:47:88:b7:c2:55:
         65:06:21:80:7c:e6:7e:25:4b:9e:a3:b3:13:de:03:e8:95:2b:
         de:69:2e:74:69:94:dc:ad:2c:9e:31:78:f7:d0:55:74:df:20:
         e7:2e:20:6a:eb:85:80:61:aa:46:3a:e8:93:b1:d0:e1:06:78:
         98:49:d4:91:9b:a2:58:ba:48:8c:8d:71:b6:6d:78:64:c7:08:
         f0:6f:5b:c9:78:d1:0d:03:68:ea:3c:9f:f0:94:06:c9:66:67:
         b2:f7:4d:a4:25:6d:db:1d:01:a7:d1:fb:de:74:ed:a2:c7:21:
         c8:9c:7b:af:32:23:63:2c:90:a2:56:18:d6:91:3c:54:21:9a:
         3b:a6:d2:0c
-----BEGIN CERTIFICATE REQUEST-----
MIICvDCCAaQCAQAwNTELMAkGA1UEBhMCRlIxEjAQBgNVBAoMCU5vZGVPUENVQTES
MBAGA1UEAwwJTm9kZU9QQ1VBMIIBIjANBgkqhkiG9w0BAQEFAAOCAQ8AMIIBCgKC
AQEAsWabVY77EcqKUkAuxjZyanND60cDQmLTVr+lU9ygg0mwBr1ruahe0C7krkZB
RdQw90sQ8aFFCZjPHb+aUBr+6fLAwgA71s3FAlizNJK+JLNPM84OYFnzBkSUZtrg
utSGI/wqkaD7e2mRHJpgfqibjOmn3Wv+JHlZS5ReHPDjvh5F5b/vC+UX050h43o6
FzG6kw0n/PzQJbBaNebKLVYvkSUXCDDKu6E2znYt1t6pMbH6x1yydpe4N9WmJkUE
xaOIr1ROY7oW+TZqE8b6dggNsD6WrQGLeAkWQWd0hu/XpO8BrbzCE076piDxOZHf
IEWV4n6lSmaIvezQ8abNO3hMQQIDAQABoEIwQAYJKoZIhvcNAQkOMTMwMTAJBgNV
HRMEAjAAMA4GA1UdDwEB/wQEAwIBBjAUBgNVHREEDTALhgl1bmRlZmluZWQwDQYJ
KoZIhvcNAQELBQADggEBAIuky7EmCCgdB0gkbKQXmY9CKDYq8WZsVPVtaQOPOj8p
004+6hapoOVnTpnXZAz6M/0YWYPubjfmYgSvehdQa1PCUfH1L5oxGSm94G53FWqZ
FPaVEBfOpDWYOJremEvglVMQBCLHLUPqOT++Fr+i3IPowUZWQinRkGdHiLfCVWUG
IYB85n4lS56jsxPeA+iVK95pLnRplNytLJ4xePfQVXTfIOcuIGrrhYBhqkY66JOx
0OEGeJhJ1JGboli6SIyNcbZteGTHCPBvW8l40Q0DaOo8n/CUBslmZ7L3TaQlbdsd
AafR+9507aLHIcice68yI2MskKJWGNaRPFQhmjum0gw=
-----END CERTIFICATE REQUEST-----
