Certificate Request:
    Data:
        Version: 0 (0x0)
        Subject: C=FR, O=NodeOPCUA, CN=NodeOPCUA
        Subject Public Key Info:
            Public Key Algorithm: rsaEncryption
                Public-Key: (2048 bit)
                Modulus:
                    00:cf:5f:fe:2a:ba:47:94:2f:fb:0a:87:8d:e3:64:
                    85:a3:93:31:51:4e:97:a4:b4:cc:9f:60:e1:34:67:
                    55:75:dd:67:34:ae:43:c2:50:23:6c:47:d4:7d:04:
                    b1:57:1e:7e:b6:9b:4c:41:45:07:8d:47:10:e3:6a:
                    28:83:cf:43:5f:5e:0c:0a:09:25:13:0b:2f:fa:07:
                    56:2f:0f:53:a2:2c:00:cb:5b:e4:ed:56:ee:3f:b0:
                    ef:de:2c:9e:a2:c0:a9:75:9d:5d:03:68:58:c6:00:
                    e9:eb:7c:c2:3b:af:1f:4b:f4:10:19:12:e3:28:e4:
                    90:43:04:3b:9e:af:51:b4:e4:b2:8a:f9:07:31:62:
                    77:4f:01:f2:f8:8b:d7:84:2a:f2:fb:ad:b6:0c:00:
                    67:a9:54:9e:3b:44:10:2d:af:de:68:69:de:46:42:
                    b2:75:44:3e:f2:a3:11:b2:34:3f:a2:1f:e7:38:b1:
                    22:2b:1f:7a:f9:ae:b4:43:e8:28:40:e4:14:ca:be:
                    8f:cc:0d:25:e5:61:aa:11:1f:3a:cb:dd:c1:92:48:
                    7b:2b:d2:8b:4d:8f:04:e7:ad:64:38:fc:03:7c:37:
                    b8:50:b9:42:78:81:96:fe:9b:bf:63:61:d3:2a:3c:
                    96:cd:04:dc:de:60:58:ec:64:8d:bf:01:a1:47:87:
                    22:fb
                Exponent: 65537 (0x10001)
        Attributes:
        Requested Extensions:
            X509v3 Basic Constraints: 
                CA:FALSE
            X509v3 Key Usage: critical
                Certificate Sign, CRL Sign
            X509v3 Subject Alternative Name: 
                URI:undefined
    Signature Algorithm: sha256WithRSAEncryption
         38:cf:f8:2d:87:12:77:88:67:5e:9a:24:2a:0c:71:ca:68:b9:
         85:23:69:6a:aa:06:8f:f3:3d:66:3a:7a:51:b1:ca:3a:e0:86:
         77:dd:37:ae:25:11:31:9d:f0:9e:7d:b9:13:36:8f:30:fb:8b:
         d3:a0:cf:30:35:93:5c:07:de:79:cf:f6:db:3e:8b:5f:49:43:
         c6:d2:db:de:fe:ef:bd:63:0b:81:2f:ae:a9:07:15:27:19:a2:
         05:d0:2d:29:35:49:a9:97:f8:64:6f:e8:ec:7d:5b:c8:ae:19:
         02:e3:1c:78:26:c9:91:40:a7:06:79:78:10:fa:29:ab:bb:88:
         5c:e7:82:6b:5a:6c:51:aa:1d:c2:d6:bd:f9:fa:e7:de:52:84:
         89:f1:ed:61:14:aa:00:9a:4e:f1:b7:c9:87:9c:d3:4b:10:6c:
         04:d6:d7:07:87:3e:c6:0e:34:d8:ff:6b:56:d3:b5:0d:b6:33:
         7e:8d:51:f5:1c:e0:41:6a:44:36:37:e8:9a:8c:8d:f2:9f:4d:
         ec:db:04:a5:ac:04:b1:b7:89:c7:6c:b7:74:7d:b5:7f:da:cc:
         4c:e1:3e:0b:f3:8b:74:45:2a:49:9b:62:53:f0:25:21:55:86:
         a0:25:0e:c2:67:0a:65:43:a9:4f:3a:c4:71:53:a2:e7:4b:fd:
         c3:8c:0e:b1
-----BEGIN CERTIFICATE REQUEST-----
MIICvDCCAaQCAQAwNTELMAkGA1UEBhMCRlIxEjAQBgNVBAoMCU5vZGVPUENVQTES
MBAGA1UEAwwJTm9kZU9QQ1VBMIIBIjANBgkqhkiG9w0BAQEFAAOCAQ8AMIIBCgKC
AQEAz1/+KrpHlC/7CoeN42SFo5MxUU6XpLTMn2DhNGdVdd1nNK5DwlAjbEfUfQSx
Vx5+tptMQUUHjUcQ42oog89DX14MCgklEwsv+gdWLw9ToiwAy1vk7VbuP7Dv3iye
osCpdZ1dA2hYxgDp63zCO68fS/QQGRLjKOSQQwQ7nq9RtOSyivkHMWJ3TwHy+IvX
hCry+622DABnqVSeO0QQLa/eaGneRkKydUQ+8qMRsjQ/oh/nOLEiKx96+a60Q+go
QOQUyr6PzA0l5WGqER86y93Bkkh7K9KLTY8E561kOPwDfDe4ULlCeIGW/pu/Y2HT
KjyWzQTc3mBY7GSNvwGhR4ci+wIDAQABoEIwQAYJKoZIhvcNAQkOMTMwMTAJBgNV
HRMEAjAAMA4GA1UdDwEB/wQEAwIBBjAUBgNVHREEDTALhgl1bmRlZmluZWQwDQYJ
KoZIhvcNAQELBQADggEBADjP+C2HEneIZ16aJCoMccpouYUjaWqqBo/zPWY6elGx
yjrghnfdN64lETGd8J59uRM2jzD7i9OgzzA1k1wH3nnP9ts+i19JQ8bS297+771j
C4EvrqkHFScZogXQLSk1SamX+GRv6Ox9W8iuGQLjHHgmyZFApwZ5eBD6Kau7iFzn
gmtabFGqHcLWvfn6595ShInx7WEUqgCaTvG3yYec00sQbATW1weHPsYONNj/a1bT
tQ22M36NUfUc4EFqRDY36JqMjfKfTezbBKWsBLG3icdst3R9tX/azEzhPgvzi3RF
KkmbYlPwJSFVhqAlDsJnCmVDqU86xHFToudL/cOMDrE=
-----END CERTIFICATE REQUEST-----
