Certificate:
    Data:
        Version: 3 (0x2)
        Serial Number: 4107 (0x100b)
    Signature Algorithm: sha256WithRSAEncryption
        Issuer: O=NodeOPCUA, CN=NodeOPCUA
        Validity
            Not Before: Jul 25 13:51:49 2019 GMT
            Not After : Jul 24 13:51:49 2020 GMT
        Subject: O=NodeOPCUA, CN=NodeOPCUA
        Subject Public Key Info:
            Public Key Algorithm: rsaEncryption
                Public-Key: (2048 bit)
                Modulus:
                    00:cf:5f:fe:2a:ba:47:94:2f:fb:0a:87:8d:e3:64:
                    85:a3:93:31:51:4e:97:a4:b4:cc:9f:60:e1:34:67:
                    55:75:dd:67:34:ae:43:c2:50:23:6c:47:d4:7d:04:
                    b1:57:1e:7e:b6:9b:4c:41:45:07:8d:47:10:e3:6a:
                    28:83:cf:43:5f:5e:0c:0a:09:25:13:0b:2f:fa:07:
                    56:2f:0f:53:a2:2c:00:cb:5b:e4:ed:56:ee:3f:b0:
                    ef:de:2c:9e:a2:c0:a9:75:9d:5d:03:68:58:c6:00:
                    e9:eb:7c:c2:3b:af:1f:4b:f4:10:19:12:e3:28:e4:
                    90:43:04:3b:9e:af:51:b4:e4:b2:8a:f9:07:31:62:
                    77:4f:01:f2:f8:8b:d7:84:2a:f2:fb:ad:b6:0c:00:
                    67:a9:54:9e:3b:44:10:2d:af:de:68:69:de:46:42:
                    b2:75:44:3e:f2:a3:11:b2:34:3f:a2:1f:e7:38:b1:
                    22:2b:1f:7a:f9:ae:b4:43:e8:28:40:e4:14:ca:be:
                    8f:cc:0d:25:e5:61:aa:11:1f:3a:cb:dd:c1:92:48:
                    7b:2b:d2:8b:4d:8f:04:e7:ad:64:38:fc:03:7c:37:
                    b8:50:b9:42:78:81:96:fe:9b:bf:63:61:d3:2a:3c:
                    96:cd:04:dc:de:60:58:ec:64:8d:bf:01:a1:47:87:
                    22:fb
                Exponent: 65537 (0x10001)
        X509v3 extensions:
            X509v3 Basic Constraints: critical
                CA:FALSE
            X509v3 Subject Key Identifier: 
                0D:C1:44:20:76:4D:F3:BB:62:91:13:9D:A1:52:C6:9F:0B:70:EB:74
            X509v3 Authority Key Identifier: 
                keyid:0D:C1:44:20:76:4D:F3:BB:62:91:13:9D:A1:52:C6:9F:0B:70:EB:74
                DirName:/O=NodeOPCUA/CN=NodeOPCUA
                serial:10:0B

            X509v3 Subject Alternative Name: 
                URI:urn:8c8590cbfaea.ant.amazon.com:NodeOPCUA-DiscoveryServer, DNS:localhost, DNS:8c8590cbfaea.ant.amazon.com
            Netscape Comment: 
                OpenSSL Generated Certificate
            X509v3 Key Usage: critical
                Digital Signature, Non Repudiation, Key Encipherment, Data Encipherment, Key Agreement, Certificate Sign
            X509v3 Extended Key Usage: critical
                TLS Web Server Authentication, TLS Web Client Authentication
    Signature Algorithm: sha256WithRSAEncryption
         83:cd:2f:90:a8:4b:2a:79:6f:69:b7:d7:4b:c5:6c:76:e3:2a:
         57:2c:06:43:c2:da:98:3f:e3:43:7d:1f:3d:d1:d9:6b:72:b2:
         6c:be:84:a5:20:62:13:4d:dd:77:1c:42:e9:a4:88:89:85:f0:
         67:5b:c9:eb:b3:bb:de:54:af:72:87:08:33:64:62:e8:76:8d:
         8d:a7:11:9b:64:c2:69:76:90:f1:b2:8b:90:74:50:8e:bb:ea:
         cc:27:e9:c2:2f:12:c7:30:7e:a4:51:ae:c7:ad:17:06:58:a4:
         eb:98:02:82:47:5f:98:2e:5e:98:17:3c:f8:c7:65:2f:a3:d9:
         d6:a0:88:50:b4:fd:45:b9:02:bb:6c:ae:6f:50:28:92:2a:05:
         00:45:05:08:71:30:a6:20:8e:54:f5:9a:62:bb:0b:f8:a6:da:
         74:89:f8:51:a8:14:e5:30:a8:5e:e2:01:3b:ab:62:6d:73:ca:
         b5:96:ed:95:13:65:10:ed:0d:70:20:c8:f3:f3:cf:09:3d:82:
         39:3e:77:43:60:ec:25:d7:1c:f5:33:d0:9a:c7:29:44:46:25:
         95:22:6f:9e:ae:70:8d:7e:aa:9c:11:f6:59:4b:f5:4f:62:62:
         6d:3f:90:3e:21:5d:65:c1:fb:3c:39:ea:7f:64:bb:a9:1c:ce:
         32:4a:ae:85
-----BEGIN CERTIFICATE-----
MIIEJDCCAwygAwIBAgICEAswDQYJKoZIhvcNAQELBQAwKDESMBAGA1UEChMJTm9k
ZU9QQ1VBMRIwEAYDVQQDEwlOb2RlT1BDVUEwIhgPMjAxOTA3MjUxMzUxNDlaGA8y
MDIwMDcyNDEzNTE0OVowKDESMBAGA1UEChMJTm9kZU9QQ1VBMRIwEAYDVQQDEwlO
b2RlT1BDVUEwggEiMA0GCSqGSIb3DQEBAQUAA4IBDwAwggEKAoIBAQDPX/4qukeU
L/sKh43jZIWjkzFRTpektMyfYOE0Z1V13Wc0rkPCUCNsR9R9BLFXHn62m0xBRQeN
RxDjaiiDz0NfXgwKCSUTCy/6B1YvD1OiLADLW+TtVu4/sO/eLJ6iwKl1nV0DaFjG
AOnrfMI7rx9L9BAZEuMo5JBDBDuer1G05LKK+QcxYndPAfL4i9eEKvL7rbYMAGep
VJ47RBAtr95oad5GQrJ1RD7yoxGyND+iH+c4sSIrH3r5rrRD6ChA5BTKvo/MDSXl
YaoRHzrL3cGSSHsr0otNjwTnrWQ4/AN8N7hQuUJ4gZb+m79jYdMqPJbNBNzeYFjs
ZI2/AaFHhyL7AgMBAAGjggFSMIIBTjAMBgNVHRMBAf8EAjAAMB0GA1UdDgQWBBQN
wUQgdk3zu2KRE52hUsafC3DrdDBRBgNVHSMESjBIgBQNwUQgdk3zu2KRE52hUsaf
C3DrdKEspCowKDESMBAGA1UEChMJTm9kZU9QQ1VBMRIwEAYDVQQDEwlOb2RlT1BD
VUGCAhALMGwGA1UdEQRlMGOGOXVybjo4Yzg1OTBjYmZhZWEuYW50LmFtYXpvbi5j
b206Tm9kZU9QQ1VBLURpc2NvdmVyeVNlcnZlcoIJbG9jYWxob3N0ghs4Yzg1OTBj
YmZhZWEuYW50LmFtYXpvbi5jb20wLAYJYIZIAYb4QgENBB8WHU9wZW5TU0wgR2Vu
ZXJhdGVkIENlcnRpZmljYXRlMA4GA1UdDwEB/wQEAwIC/DAgBgNVHSUBAf8EFjAU
BggrBgEFBQcDAQYIKwYBBQUHAwIwDQYJKoZIhvcNAQELBQADggEBAIPNL5CoSyp5
b2m310vFbHbjKlcsBkPC2pg/40N9Hz3R2Wtysmy+hKUgYhNN3XccQumkiImF8Gdb
yeuzu95Ur3KHCDNkYuh2jY2nEZtkwml2kPGyi5B0UI676swn6cIvEscwfqRRrset
FwZYpOuYAoJHX5guXpgXPPjHZS+j2dagiFC0/UW5Artsrm9QKJIqBQBFBQhxMKYg
jlT1mmK7C/im2nSJ+FGoFOUwqF7iATurYm1zyrWW7ZUTZRDtDXAgyPPzzwk9gjk+
d0Ng7CXXHPUz0JrHKURGJZUib56ucI1+qpwR9llL9U9iYm0/kD4hXWXB+zw56n9k
u6kczjJKroU=
-----END CERTIFICATE-----
