Certificate Request:
    Data:
        Version: 0 (0x0)
        Subject: C=FR, O=NodeOPCUA, CN=NodeOPCUA
        Subject Public Key Info:
            Public Key Algorithm: rsaEncryption
                Public-Key: (1024 bit)
                Modulus:
                    00:c8:ce:c9:4b:01:3f:7b:8e:7b:44:3b:1e:bb:b0:
                    35:c5:86:b6:9e:e1:89:21:75:89:38:c3:ed:23:cc:
                    c7:74:ac:c9:ab:87:c4:07:26:86:36:1a:2a:af:74:
                    df:88:83:0b:a4:3a:34:ba:58:d2:7a:67:a6:03:da:
                    02:c2:3c:aa:77:f2:89:c3:4e:89:bf:fc:b2:f0:a7:
                    a3:e9:02:3b:30:ac:07:1f:c5:67:8e:61:36:a7:aa:
                    9e:e9:a1:87:fd:2a:1d:6a:c3:d2:73:fb:d7:c8:fb:
                    3f:92:2d:30:d8:6e:bc:27:88:75:de:09:4e:cc:b6:
                    20:f8:05:cb:b5:09:80:40:eb
                Exponent: 65537 (0x10001)
        Attributes:
        Requested Extensions:
            X509v3 Basic Constraints: 
                CA:FALSE
            X509v3 Key Usage: critical
                Certificate Sign, CRL Sign
            X509v3 Subject Alternative Name: 
                URI:undefined
    Signature Algorithm: sha256WithRSAEncryption
         2f:e2:92:47:cf:3f:09:9b:5e:a0:37:82:09:8f:e8:cb:27:c4:
         3b:48:6b:c8:2c:c4:03:ff:11:c7:93:91:99:94:5a:1e:b0:cd:
         a6:45:5f:f7:ca:6c:10:1d:0e:83:7d:95:81:77:cb:75:38:9d:
         b1:ea:1d:0b:9c:84:49:b0:73:d7:75:3c:8a:8e:dc:41:05:5a:
         f0:a0:a9:b5:94:bd:59:4b:68:eb:25:b6:c0:50:48:ec:6f:1e:
         a9:1e:38:5a:3a:9c:91:46:a0:f2:b2:c2:7c:d7:a9:40:ef:81:
         b4:53:94:83:ea:2a:7f:5c:b1:8f:ae:c0:3d:9a:9e:98:a4:d4:
         43:e1
-----BEGIN CERTIFICATE REQUEST-----
MIIBtzCCASACAQAwNTELMAkGA1UEBhMCRlIxEjAQBgNVBAoMCU5vZGVPUENVQTES
MBAGA1UEAwwJTm9kZU9QQ1VBMIGfMA0GCSqGSIb3DQEBAQUAA4GNADCBiQKBgQDI
zslLAT97jntEOx67sDXFhrae4YkhdYk4w+0jzMd0rMmrh8QHJoY2GiqvdN+Igwuk
OjS6WNJ6Z6YD2gLCPKp38onDTom//LLwp6PpAjswrAcfxWeOYTanqp7poYf9Kh1q
w9Jz+9fI+z+SLTDYbrwniHXeCU7MtiD4Bcu1CYBA6wIDAQABoEIwQAYJKoZIhvcN
AQkOMTMwMTAJBgNVHRMEAjAAMA4GA1UdDwEB/wQEAwIBBjAUBgNVHREEDTALhgl1
bmRlZmluZWQwDQYJKoZIhvcNAQELBQADgYEAL+KSR88/CZteoDeCCY/oyyfEO0hr
yCzEA/8Rx5ORmZRaHrDNpkVf98psEB0Og32VgXfLdTidseodC5yESbBz13U8io7c
QQVa8KCptZS9WUto6yW2wFBI7G8eqR44WjqckUag8rLCfNepQO+BtFOUg+oqf1yx
j67APZqemKTUQ+E=
-----END CERTIFICATE REQUEST-----
