Certificate:
    Data:
        Version: 3 (0x2)
        Serial Number: 4103 (0x1007)
    Signature Algorithm: sha256WithRSAEncryption
        Issuer: O=NodeOPCUA, CN=NodeOPCUA
        Validity
            Not Before: Jul 25 13:51:49 2019 GMT
            Not After : Jul 24 13:51:49 2020 GMT
        Subject: O=NodeOPCUA, CN=NodeOPCUA
        Subject Public Key Info:
            Public Key Algorithm: rsaEncryption
                Public-Key: (2048 bit)
                Modulus:
                    00:d2:97:4d:58:0f:cf:31:a2:99:57:2c:00:01:58:
                    ca:8e:04:26:81:85:9f:2f:08:6f:d7:09:e2:e4:b5:
                    fc:23:ad:73:f1:1c:bf:60:22:ee:d1:22:4b:16:0d:
                    fe:5b:0b:68:0e:09:df:ed:2e:62:d5:50:0d:85:70:
                    8d:fc:4e:97:d6:ad:43:0b:1d:dd:dd:dd:b4:7e:71:
                    66:7c:92:d1:ee:39:f6:e3:95:cd:77:08:a2:a6:62:
                    d7:07:32:ab:73:7d:db:10:6d:de:59:33:5a:41:40:
                    ab:3d:06:88:f4:66:9d:ab:2e:b1:c5:b0:78:45:c8:
                    13:22:1b:17:67:6c:42:fa:62:ce:ee:4f:93:16:70:
                    e8:8c:8f:80:f1:1e:f2:4b:56:76:e7:c8:9d:f8:12:
                    e2:fb:b9:43:80:dc:4a:01:45:ec:38:48:1d:62:fd:
                    10:0a:2e:61:fb:a1:95:38:47:e4:9b:a7:87:8f:a4:
                    cd:af:0e:5f:4c:1a:8e:fe:34:2f:6f:c9:20:4d:e9:
                    7a:8a:28:16:fc:f6:c0:50:32:89:f8:76:4b:77:c4:
                    be:2e:10:01:1d:24:9b:4a:47:10:cb:88:a0:06:16:
                    ed:4d:b0:16:dd:46:3b:b7:f0:5e:c6:10:30:14:4c:
                    47:7e:3f:b2:c0:88:60:32:07:86:04:a6:cf:a2:d1:
                    27:91
                Exponent: 65537 (0x10001)
        X509v3 extensions:
            X509v3 Basic Constraints: critical
                CA:FALSE
            X509v3 Subject Key Identifier: 
                CE:07:FD:A8:01:51:27:33:D7:01:ED:3B:68:D2:63:91:A2:45:1D:CA
            X509v3 Authority Key Identifier: 
                keyid:CE:07:FD:A8:01:51:27:33:D7:01:ED:3B:68:D2:63:91:A2:45:1D:CA
                DirName:/O=NodeOPCUA/CN=NodeOPCUA
                serial:10:07

            X509v3 Subject Alternative Name: 
                URI:urn:8c8590cbfaea.ant.amazon.com:NodeOPCUA-Server, DNS:localhost, DNS:8c8590cbfaea.ant.amazon.com
            Netscape Comment: 
                OpenSSL Generated Certificate
            X509v3 Key Usage: critical
                Digital Signature, Non Repudiation, Key Encipherment, Data Encipherment, Key Agreement, Certificate Sign
            X509v3 Extended Key Usage: critical
                TLS Web Server Authentication, TLS Web Client Authentication
    Signature Algorithm: sha256WithRSAEncryption
         05:90:ae:6f:f9:56:15:71:8c:3c:fa:95:35:42:25:3b:a2:3f:
         0a:52:e7:52:44:72:d7:ea:7a:35:4b:c6:10:16:96:1b:4a:f4:
         41:69:cd:3e:4f:f1:58:da:53:7e:65:f6:52:6f:95:a2:43:3e:
         f0:c6:b3:d4:67:5a:e5:6c:44:06:f3:6a:05:f9:55:1a:a3:37:
         f8:e5:e7:07:a7:58:06:9f:10:f4:c5:82:9d:e8:01:67:41:69:
         fb:dc:4e:77:14:6d:4f:2e:39:ad:3e:ef:dc:af:e7:6c:df:e0:
         ee:f1:a2:62:fc:7a:01:de:12:2e:8f:98:79:a8:1d:77:54:3c:
         43:d8:6b:cc:45:6c:a3:20:d4:69:3d:e6:fa:5a:10:74:56:95:
         b6:34:4d:4e:89:62:25:6b:e5:cd:d0:96:04:7b:e9:27:43:e6:
         9a:ce:99:31:2e:4b:91:ef:16:09:db:94:f7:ab:a8:49:bb:50:
         ce:1f:f9:93:49:df:83:5d:e8:04:68:d3:b7:75:34:eb:dc:54:
         bc:f3:bb:96:07:22:0a:69:92:ca:7f:9c:e8:4e:49:f0:35:19:
         68:d5:a8:e2:5c:d7:07:2e:71:e1:62:19:a7:c3:e5:da:d9:e7:
         19:73:9e:dd:7f:0e:ff:8d:72:bb:4c:70:63:d9:d7:67:b6:19:
         2c:c1:f5:14
-----BEGIN CERTIFICATE-----
MIIEGzCCAwOgAwIBAgICEAcwDQYJKoZIhvcNAQELBQAwKDESMBAGA1UEChMJTm9k
ZU9QQ1VBMRIwEAYDVQQDEwlOb2RlT1BDVUEwIhgPMjAxOTA3MjUxMzUxNDlaGA8y
MDIwMDcyNDEzNTE0OVowKDESMBAGA1UEChMJTm9kZU9QQ1VBMRIwEAYDVQQDEwlO
b2RlT1BDVUEwggEiMA0GCSqGSIb3DQEBAQUAA4IBDwAwggEKAoIBAQDSl01YD88x
oplXLAABWMqOBCaBhZ8vCG/XCeLktfwjrXPxHL9gIu7RIksWDf5bC2gOCd/tLmLV
UA2FcI38TpfWrUMLHd3d3bR+cWZ8ktHuOfbjlc13CKKmYtcHMqtzfdsQbd5ZM1pB
QKs9Boj0Zp2rLrHFsHhFyBMiGxdnbEL6Ys7uT5MWcOiMj4DxHvJLVnbnyJ34EuL7
uUOA3EoBRew4SB1i/RAKLmH7oZU4R+Sbp4ePpM2vDl9MGo7+NC9vySBN6XqKKBb8
9sBQMon4dkt3xL4uEAEdJJtKRxDLiKAGFu1NsBbdRju38F7GEDAUTEd+P7LAiGAy
B4YEps+i0SeRAgMBAAGjggFJMIIBRTAMBgNVHRMBAf8EAjAAMB0GA1UdDgQWBBTO
B/2oAVEnM9cB7Tto0mORokUdyjBRBgNVHSMESjBIgBTOB/2oAVEnM9cB7Tto0mOR
okUdyqEspCowKDESMBAGA1UEChMJTm9kZU9QQ1VBMRIwEAYDVQQDEwlOb2RlT1BD
VUGCAhAHMGMGA1UdEQRcMFqGMHVybjo4Yzg1OTBjYmZhZWEuYW50LmFtYXpvbi5j
b206Tm9kZU9QQ1VBLVNlcnZlcoIJbG9jYWxob3N0ghs4Yzg1OTBjYmZhZWEuYW50
LmFtYXpvbi5jb20wLAYJYIZIAYb4QgENBB8WHU9wZW5TU0wgR2VuZXJhdGVkIENl
cnRpZmljYXRlMA4GA1UdDwEB/wQEAwIC/DAgBgNVHSUBAf8EFjAUBggrBgEFBQcD
AQYIKwYBBQUHAwIwDQYJKoZIhvcNAQELBQADggEBAAWQrm/5VhVxjDz6lTVCJTui
PwpS51JEctfqejVLxhAWlhtK9EFpzT5P8VjaU35l9lJvlaJDPvDGs9RnWuVsRAbz
agX5VRqjN/jl5wenWAafEPTFgp3oAWdBafvcTncUbU8uOa0+79yv52zf4O7xomL8
egHeEi6PmHmoHXdUPEPYa8xFbKMg1Gk95vpaEHRWlbY0TU6JYiVr5c3QlgR76SdD
5prOmTEuS5HvFgnblPerqEm7UM4f+ZNJ34Nd6ARo07d1NOvcVLzzu5YHIgppksp/
nOhOSfA1GWjVqOJc1wcuceFiGafD5drZ5xlznt1/Dv+NcrtMcGPZ12e2GSzB9RQ=
-----END CERTIFICATE-----
