Certificate Request:
    Data:
        Version: 0 (0x0)
        Subject: C=FR, O=NodeOPCUA, CN=NodeOPCUA
        Subject Public Key Info:
            Public Key Algorithm: rsaEncryption
                Public-Key: (1024 bit)
                Modulus:
                    00:c0:93:82:bd:26:5d:8b:2c:96:31:ec:f2:82:c6:
                    66:72:65:c2:9e:25:a6:d3:5e:a8:e0:ec:12:96:73:
                    94:b6:d1:43:37:4f:3f:5d:8e:17:14:8b:19:5d:4d:
                    1c:e2:13:84:8b:67:e9:ff:aa:bd:9c:cd:2c:db:26:
                    30:25:9a:ba:fb:b3:52:fa:15:09:56:5a:aa:31:43:
                    21:7e:67:97:88:f5:73:28:69:70:28:33:c1:bd:86:
                    d4:73:95:f9:62:a4:0a:f6:53:b1:cf:df:61:88:ba:
                    6a:a2:2c:0a:39:43:b8:8c:7f:16:65:62:3d:d2:02:
                    92:61:d7:8b:4d:98:3e:59:81
                Exponent: 65537 (0x10001)
        Attributes:
        Requested Extensions:
            X509v3 Basic Constraints: 
                CA:FALSE
            X509v3 Key Usage: critical
                Certificate Sign, CRL Sign
            X509v3 Subject Alternative Name: 
                URI:undefined
    Signature Algorithm: sha256WithRSAEncryption
         27:25:e7:dd:4c:7b:8d:e9:96:a4:72:f5:fe:bd:9c:ca:05:e4:
         6e:d9:78:78:62:c3:fe:2a:86:30:34:b7:75:a1:0e:4d:17:77:
         0a:3d:fc:76:f6:36:85:18:a6:c8:57:74:6c:05:f0:8a:73:fa:
         7a:bf:71:6d:8a:10:b0:59:86:37:6f:aa:cb:ca:86:11:77:71:
         9c:7a:3c:94:ae:cc:bb:65:5a:76:4f:1f:82:f5:cf:aa:c5:94:
         a2:e3:99:17:48:4b:41:1c:c9:ca:0c:a1:6f:d9:bd:b3:88:3a:
         b1:be:ec:d4:19:45:31:37:b3:0e:ff:b5:eb:cc:7c:11:5e:82:
         d5:28
-----BEGIN CERTIFICATE REQUEST-----
MIIBtzCCASACAQAwNTELMAkGA1UEBhMCRlIxEjAQBgNVBAoMCU5vZGVPUENVQTES
MBAGA1UEAwwJTm9kZU9QQ1VBMIGfMA0GCSqGSIb3DQEBAQUAA4GNADCBiQKBgQDA
k4K9Jl2LLJYx7PKCxmZyZcKeJabTXqjg7BKWc5S20UM3Tz9djhcUixldTRziE4SL
Z+n/qr2czSzbJjAlmrr7s1L6FQlWWqoxQyF+Z5eI9XMoaXAoM8G9htRzlflipAr2
U7HP32GIumqiLAo5Q7iMfxZlYj3SApJh14tNmD5ZgQIDAQABoEIwQAYJKoZIhvcN
AQkOMTMwMTAJBgNVHRMEAjAAMA4GA1UdDwEB/wQEAwIBBjAUBgNVHREEDTALhgl1
bmRlZmluZWQwDQYJKoZIhvcNAQELBQADgYEAJyXn3Ux7jemWpHL1/r2cygXkbtl4
eGLD/iqGMDS3daEOTRd3Cj38dvY2hRimyFd0bAXwinP6er9xbYoQsFmGN2+qy8qG
EXdxnHo8lK7Mu2Vadk8fgvXPqsWUouOZF0hLQRzJygyhb9m9s4g6sb7s1BlFMTez
Dv+168x8EV6C1Sg=
-----END CERTIFICATE REQUEST-----
