Certificate:
    Data:
        Version: 3 (0x2)
        Serial Number: 4101 (0x1005)
    Signature Algorithm: sha256WithRSAEncryption
        Issuer: O=NodeOPCUA, CN=NodeOPCUA
        Validity
            Not Before: Jul 25 13:51:49 2019 GMT
            Not After : Jul 24 13:51:49 2020 GMT
        Subject: O=NodeOPCUA, CN=NodeOPCUA
        Subject Public Key Info:
            Public Key Algorithm: rsaEncryption
                Public-Key: (1024 bit)
                Modulus:
                    00:c0:93:82:bd:26:5d:8b:2c:96:31:ec:f2:82:c6:
                    66:72:65:c2:9e:25:a6:d3:5e:a8:e0:ec:12:96:73:
                    94:b6:d1:43:37:4f:3f:5d:8e:17:14:8b:19:5d:4d:
                    1c:e2:13:84:8b:67:e9:ff:aa:bd:9c:cd:2c:db:26:
                    30:25:9a:ba:fb:b3:52:fa:15:09:56:5a:aa:31:43:
                    21:7e:67:97:88:f5:73:28:69:70:28:33:c1:bd:86:
                    d4:73:95:f9:62:a4:0a:f6:53:b1:cf:df:61:88:ba:
                    6a:a2:2c:0a:39:43:b8:8c:7f:16:65:62:3d:d2:02:
                    92:61:d7:8b:4d:98:3e:59:81
                Exponent: 65537 (0x10001)
        X509v3 extensions:
            X509v3 Basic Constraints: critical
                CA:FALSE
            X509v3 Subject Key Identifier: 
                D4:B9:EF:EC:C6:C9:5C:D9:E7:3F:50:7B:95:27:80:B9:84:69:36:95
            X509v3 Authority Key Identifier: 
                keyid:D4:B9:EF:EC:C6:C9:5C:D9:E7:3F:50:7B:95:27:80:B9:84:69:36:95
                DirName:/O=NodeOPCUA/CN=NodeOPCUA
                serial:10:05

            X509v3 Subject Alternative Name: 
                URI:urn:8c8590cbfaea.ant.amazon.com:NodeOPCUA-Server, DNS:localhost, DNS:8c8590cbfaea.ant.amazon.com
            Netscape Comment: 
                OpenSSL Generated Certificate
            X509v3 Key Usage: critical
                Digital Signature, Non Repudiation, Key Encipherment, Data Encipherment, Key Agreement, Certificate Sign
            X509v3 Extended Key Usage: critical
                TLS Web Server Authentication, TLS Web Client Authentication
    Signature Algorithm: sha256WithRSAEncryption
         12:c2:a8:e5:c0:a5:38:b3:d7:7f:ab:da:88:76:82:e8:7d:35:
         d0:8b:49:29:29:f4:fd:b4:6b:8f:27:9c:39:84:ba:ab:3a:b1:
         09:77:45:7a:dd:30:b1:32:12:63:64:28:e5:90:50:d3:d4:e1:
         38:38:c7:21:ee:7e:0b:3e:12:f7:fc:f4:2f:a6:bb:1d:be:7a:
         b5:33:75:48:df:d2:d7:dc:35:3c:bf:24:1d:86:63:50:fd:74:
         9c:a8:60:44:4c:c3:b8:36:bb:9a:db:f8:ea:d7:1b:2a:0c:ab:
         b9:5f:24:6e:17:2b:82:b0:b4:ac:bb:20:d9:48:3f:d8:d2:f5:
         46:7c
-----BEGIN CERTIFICATE-----
MIIDFjCCAn+gAwIBAgICEAUwDQYJKoZIhvcNAQELBQAwKDESMBAGA1UEChMJTm9k
ZU9QQ1VBMRIwEAYDVQQDEwlOb2RlT1BDVUEwIhgPMjAxOTA3MjUxMzUxNDlaGA8y
MDIwMDcyNDEzNTE0OVowKDESMBAGA1UEChMJTm9kZU9QQ1VBMRIwEAYDVQQDEwlO
b2RlT1BDVUEwgZ8wDQYJKoZIhvcNAQEBBQADgY0AMIGJAoGBAMCTgr0mXYssljHs
8oLGZnJlwp4lptNeqODsEpZzlLbRQzdPP12OFxSLGV1NHOIThItn6f+qvZzNLNsm
MCWauvuzUvoVCVZaqjFDIX5nl4j1cyhpcCgzwb2G1HOV+WKkCvZTsc/fYYi6aqIs
CjlDuIx/FmViPdICkmHXi02YPlmBAgMBAAGjggFJMIIBRTAMBgNVHRMBAf8EAjAA
MB0GA1UdDgQWBBTUue/sxslc2ec/UHuVJ4C5hGk2lTBRBgNVHSMESjBIgBTUue/s
xslc2ec/UHuVJ4C5hGk2laEspCowKDESMBAGA1UEChMJTm9kZU9QQ1VBMRIwEAYD
VQQDEwlOb2RlT1BDVUGCAhAFMGMGA1UdEQRcMFqGMHVybjo4Yzg1OTBjYmZhZWEu
YW50LmFtYXpvbi5jb206Tm9kZU9QQ1VBLVNlcnZlcoIJbG9jYWxob3N0ghs4Yzg1
OTBjYmZhZWEuYW50LmFtYXpvbi5jb20wLAYJYIZIAYb4QgENBB8WHU9wZW5TU0wg
R2VuZXJhdGVkIENlcnRpZmljYXRlMA4GA1UdDwEB/wQEAwIC/DAgBgNVHSUBAf8E
FjAUBggrBgEFBQcDAQYIKwYBBQUHAwIwDQYJKoZIhvcNAQELBQADgYEAEsKo5cCl
OLPXf6vaiHaC6H010ItJKSn0/bRrjyecOYS6qzqxCXdFet0wsTISY2Qo5ZBQ09Th
ODjHIe5+Cz4S9/z0L6a7Hb56tTN1SN/S19w1PL8kHYZjUP10nKhgREzDuDa7mtv4
6tcbKgyruV8kbhcrgrC0rLsg2Ug/2NL1Rnw=
-----END CERTIFICATE-----
