Certificate Request:
    Data:
        Version: 0 (0x0)
        Subject: C=FR, O=NodeOPCUA, CN=NodeOPCUA
        Subject Public Key Info:
            Public Key Algorithm: rsaEncryption
                Public-Key: (2048 bit)
                Modulus:
                    00:d2:97:4d:58:0f:cf:31:a2:99:57:2c:00:01:58:
                    ca:8e:04:26:81:85:9f:2f:08:6f:d7:09:e2:e4:b5:
                    fc:23:ad:73:f1:1c:bf:60:22:ee:d1:22:4b:16:0d:
                    fe:5b:0b:68:0e:09:df:ed:2e:62:d5:50:0d:85:70:
                    8d:fc:4e:97:d6:ad:43:0b:1d:dd:dd:dd:b4:7e:71:
                    66:7c:92:d1:ee:39:f6:e3:95:cd:77:08:a2:a6:62:
                    d7:07:32:ab:73:7d:db:10:6d:de:59:33:5a:41:40:
                    ab:3d:06:88:f4:66:9d:ab:2e:b1:c5:b0:78:45:c8:
                    13:22:1b:17:67:6c:42:fa:62:ce:ee:4f:93:16:70:
                    e8:8c:8f:80:f1:1e:f2:4b:56:76:e7:c8:9d:f8:12:
                    e2:fb:b9:43:80:dc:4a:01:45:ec:38:48:1d:62:fd:
                    10:0a:2e:61:fb:a1:95:38:47:e4:9b:a7:87:8f:a4:
                    cd:af:0e:5f:4c:1a:8e:fe:34:2f:6f:c9:20:4d:e9:
                    7a:8a:28:16:fc:f6:c0:50:32:89:f8:76:4b:77:c4:
                    be:2e:10:01:1d:24:9b:4a:47:10:cb:88:a0:06:16:
                    ed:4d:b0:16:dd:46:3b:b7:f0:5e:c6:10:30:14:4c:
                    47:7e:3f:b2:c0:88:60:32:07:86:04:a6:cf:a2:d1:
                    27:91
                Exponent: 65537 (0x10001)
        Attributes:
        Requested Extensions:
            X509v3 Basic Constraints: 
                CA:FALSE
            X509v3 Key Usage: critical
                Certificate Sign, CRL Sign
            X509v3 Subject Alternative Name: 
                URI:undefined
    Signature Algorithm: sha256WithRSAEncryption
         62:d5:e8:aa:ad:12:84:04:16:7f:71:49:87:fb:e2:92:35:45:
         5b:a5:fa:45:ad:09:40:05:8a:61:69:17:bb:08:d3:7a:ec:46:
         51:2a:d3:7c:70:74:50:9a:1c:85:53:5c:4a:02:6f:2b:fc:e8:
         ee:f6:46:c2:ec:db:99:62:63:ce:f5:e3:15:5e:9d:37:f3:9e:
         bc:e2:f4:6d:ca:e7:1b:5e:7a:0c:a7:4a:9e:b3:6e:c7:9c:6b:
         b7:e8:9e:94:83:a7:c4:e2:53:89:e0:d5:20:75:28:b5:df:b4:
         a3:25:aa:1c:8e:06:c8:b4:8c:24:f3:4b:83:1f:d8:96:eb:8b:
         96:72:f1:3a:47:ca:92:c8:42:77:30:c5:34:ae:a5:9f:9b:c2:
         59:ef:a0:c6:38:08:ed:ec:34:81:ef:25:bf:ac:de:07:85:b3:
         27:93:fc:82:e5:1a:28:18:f5:3b:42:31:2e:d7:d1:4e:f2:82:
         c4:54:1c:17:5d:cc:ed:b6:4b:2e:8f:f5:d0:39:1c:3d:d1:9b:
         fc:ef:ff:3a:c4:23:87:e9:e6:78:9f:2c:7f:2b:6f:f5:5c:45:
         2e:27:3a:63:06:69:bc:18:da:25:7e:0b:02:55:26:99:96:55:
         bb:c1:99:e1:22:86:16:fe:16:a4:e0:20:73:20:81:7c:b9:d5:
         9e:27:f8:fc
-----BEGIN CERTIFICATE REQUEST-----
MIICvDCCAaQCAQAwNTELMAkGA1UEBhMCRlIxEjAQBgNVBAoMCU5vZGVPUENVQTES
MBAGA1UEAwwJTm9kZU9QQ1VBMIIBIjANBgkqhkiG9w0BAQEFAAOCAQ8AMIIBCgKC
AQEA0pdNWA/PMaKZVywAAVjKjgQmgYWfLwhv1wni5LX8I61z8Ry/YCLu0SJLFg3+
WwtoDgnf7S5i1VANhXCN/E6X1q1DCx3d3d20fnFmfJLR7jn245XNdwiipmLXBzKr
c33bEG3eWTNaQUCrPQaI9Gadqy6xxbB4RcgTIhsXZ2xC+mLO7k+TFnDojI+A8R7y
S1Z258id+BLi+7lDgNxKAUXsOEgdYv0QCi5h+6GVOEfkm6eHj6TNrw5fTBqO/jQv
b8kgTel6iigW/PbAUDKJ+HZLd8S+LhABHSSbSkcQy4igBhbtTbAW3UY7t/BexhAw
FExHfj+ywIhgMgeGBKbPotEnkQIDAQABoEIwQAYJKoZIhvcNAQkOMTMwMTAJBgNV
HRMEAjAAMA4GA1UdDwEB/wQEAwIBBjAUBgNVHREEDTALhgl1bmRlZmluZWQwDQYJ
KoZIhvcNAQELBQADggEBAGLV6KqtEoQEFn9xSYf74pI1RVul+kWtCUAFimFpF7sI
03rsRlEq03xwdFCaHIVTXEoCbyv86O72RsLs25liY8714xVenTfznrzi9G3K5xte
egynSp6zbseca7fonpSDp8TiU4ng1SB1KLXftKMlqhyOBsi0jCTzS4Mf2Jbri5Zy
8TpHypLIQncwxTSupZ+bwlnvoMY4CO3sNIHvJb+s3geFsyeT/ILlGigY9TtCMS7X
0U7ygsRUHBddzO22Sy6P9dA5HD3Rm/zv/zrEI4fp5nifLH8rb/VcRS4nOmMGabwY
2iV+CwJVJpmWVbvBmeEihhb+FqTgIHMggXy51Z4n+Pw=
-----END CERTIFICATE REQUEST-----
