Certificate Request:
    Data:
        Version: 0 (0x0)
        Subject: C=FR, ST=IDF, L=Paris, O=Local NODE-OPCUA Certificate Authority, CN=NodeOPCUA-CA
        Subject Public Key Info:
            Public Key Algorithm: rsaEncryption
                Public-Key: (2048 bit)
                Modulus:
                    00:d9:ef:19:b5:3e:f7:25:3b:7e:e5:a7:26:d7:e3:
                    5f:9d:ee:f9:bf:24:28:26:98:a4:02:28:85:5c:df:
                    68:27:1e:9b:90:e7:6f:e2:a5:62:41:2d:91:94:d2:
                    cf:20:b8:b5:ed:60:f4:ae:6a:22:fb:da:1e:34:60:
                    25:a9:92:98:55:bc:7c:33:5f:54:eb:1f:03:79:ad:
                    5a:f9:f4:d6:58:d7:7d:43:57:fc:7e:ab:c5:83:09:
                    76:73:c1:61:d5:fe:cc:36:9f:d0:5e:b9:e0:c3:7a:
                    7e:7e:0f:5e:c3:f4:9c:a7:c3:0c:84:88:76:bb:3c:
                    5f:3f:70:56:07:de:cd:7b:be:28:6f:78:e5:52:12:
                    af:9f:71:be:c1:ca:1f:bc:91:86:d4:8e:8e:55:b9:
                    3b:4b:ef:3c:87:f1:7c:9f:22:ee:16:3c:1b:9b:db:
                    66:83:9f:9f:19:80:a3:6b:b6:b3:01:65:6d:8c:af:
                    34:f0:1f:0a:d5:87:bc:3a:8f:b1:b4:e6:b8:e3:9c:
                    ad:25:84:f0:c2:c4:b8:80:f2:41:37:38:5f:e8:5a:
                    cb:24:b1:03:19:7b:d0:bf:f0:8e:72:65:50:5e:a1:
                    06:ee:e1:67:88:e5:41:5d:0c:39:2c:c1:8e:95:d5:
                    6d:48:fb:eb:8a:2d:dc:d2:53:8e:a5:ca:81:80:17:
                    c4:0b
                Exponent: 65537 (0x10001)
        Attributes:
        Requested Extensions:
            X509v3 Basic Constraints: critical
                CA:FALSE
            X509v3 Key Usage: 
                Digital Signature, Non Repudiation, Key Encipherment, Data Encipherment, Key Agreement
            X509v3 Subject Alternative Name: 
                URI:undefined
            Netscape Comment: 
                CA Generated by Node-OPCUA Certificate utility using openssl
    Signature Algorithm: sha256WithRSAEncryption
         27:f3:0e:ff:76:53:86:fe:ff:87:a7:c5:92:85:75:aa:56:b5:
         42:63:5d:c8:1a:a3:08:1c:90:be:18:14:c3:69:b6:d0:c0:4b:
         4e:ca:83:98:30:67:08:3e:de:89:99:cf:44:15:50:89:6d:22:
         49:7b:a3:e0:a4:07:5b:a6:66:11:51:35:a4:1a:c2:fa:d2:95:
         99:01:c5:16:a0:b4:ca:72:9d:1f:50:6c:ae:cc:2e:e8:e9:bb:
         5d:e5:a5:93:6d:a8:4e:0a:08:38:60:cd:cb:7e:3d:80:c7:5b:
         55:fd:f1:4e:f4:d1:6a:1c:f2:7f:b2:7e:92:05:b4:1c:91:f0:
         6a:71:95:9b:b9:25:d8:60:99:b2:24:24:85:04:f0:19:9d:50:
         b7:3d:e3:f5:d0:13:13:fa:82:e5:47:1d:05:7f:11:42:30:01:
         91:bc:d3:8f:f2:b2:2a:bc:12:7a:34:3e:3c:d1:91:87:8b:5f:
         07:00:92:6d:33:40:de:e9:5e:c2:99:45:d9:d9:9d:b5:8b:f1:
         73:29:be:61:82:dd:be:2b:0e:c1:15:24:38:d4:47:e0:fd:c5:
         d6:90:ad:63:5d:83:99:bf:d1:54:d8:36:30:0a:37:b3:ee:b0:
         cd:b0:7f:a5:a4:b5:5c:98:4f:be:c1:51:7c:f0:5f:2d:b5:e8:
         25:aa:d2:96
-----BEGIN CERTIFICATE REQUEST-----
MIIDSjCCAjICAQAwczELMAkGA1UEBhMCRlIxDDAKBgNVBAgTA0lERjEOMAwGA1UE
BxMFUGFyaXMxLzAtBgNVBAoTJkxvY2FsIE5PREUtT1BDVUEgQ2VydGlmaWNhdGUg
QXV0aG9yaXR5MRUwEwYDVQQDEwxOb2RlT1BDVUEtQ0EwggEiMA0GCSqGSIb3DQEB
AQUAA4IBDwAwggEKAoIBAQDZ7xm1PvclO37lpybX41+d7vm/JCgmmKQCKIVc32gn
HpuQ52/ipWJBLZGU0s8guLXtYPSuaiL72h40YCWpkphVvHwzX1TrHwN5rVr59NZY
131DV/x+q8WDCXZzwWHV/sw2n9BeueDDen5+D17D9JynwwyEiHa7PF8/cFYH3s17
vihveOVSEq+fcb7Byh+8kYbUjo5VuTtL7zyH8XyfIu4WPBub22aDn58ZgKNrtrMB
ZW2MrzTwHwrVh7w6j7G05rjjnK0lhPDCxLiA8kE3OF/oWssksQMZe9C/8I5yZVBe
oQbu4WeI5UFdDDkswY6V1W1I++uKLdzSU46lyoGAF8QLAgMBAAGggZEwgY4GCSqG
SIb3DQEJDjGBgDB+MAwGA1UdEwEB/wQCMAAwCwYDVR0PBAQDAgP4MBQGA1UdEQQN
MAuGCXVuZGVmaW5lZDBLBglghkgBhvhCAQ0EPhY8Q0EgR2VuZXJhdGVkIGJ5IE5v
ZGUtT1BDVUEgQ2VydGlmaWNhdGUgdXRpbGl0eSB1c2luZyBvcGVuc3NsMA0GCSqG
SIb3DQEBCwUAA4IBAQAn8w7/dlOG/v+Hp8WShXWqVrVCY13IGqMIHJC+GBTDabbQ
wEtOyoOYMGcIPt6Jmc9EFVCJbSJJe6PgpAdbpmYRUTWkGsL60pWZAcUWoLTKcp0f
UGyuzC7o6btd5aWTbahOCgg4YM3Lfj2Ax1tV/fFO9NFqHPJ/sn6SBbQckfBqcZWb
uSXYYJmyJCSFBPAZnVC3PeP10BMT+oLlRx0FfxFCMAGRvNOP8rIqvBJ6ND480ZGH
i18HAJJtM0De6V7CmUXZ2Z21i/FzKb5hgt2+Kw7BFSQ41Efg/cXWkK1jXYOZv9FU
2DYwCjez7rDNsH+lpLVcmE++wVF88F8tteglqtKW
-----END CERTIFICATE REQUEST-----
