Certificate:
    Data:
        Version: 3 (0x2)
        Serial Number: 4098 (0x1002)
    Signature Algorithm: sha256WithRSAEncryption
        Issuer: C=FR, ST=IDF, L=Paris, O=Local NODE-OPCUA Certificate Authority, CN=NodeOPCUA-CA
        Validity
            Not Before: Jul 25 13:51:49 2019 GMT
            Not After : Jul 24 13:51:49 2020 GMT
        Subject: C=FR, O=NodeOPCUA, CN=NodeOPCUA
        Subject Public Key Info:
            Public Key Algorithm: rsaEncryption
                Public-Key: (2048 bit)
                Modulus:
                    00:b1:66:9b:55:8e:fb:11:ca:8a:52:40:2e:c6:36:
                    72:6a:73:43:eb:47:03:42:62:d3:56:bf:a5:53:dc:
                    a0:83:49:b0:06:bd:6b:b9:a8:5e:d0:2e:e4:ae:46:
                    41:45:d4:30:f7:4b:10:f1:a1:45:09:98:cf:1d:bf:
                    9a:50:1a:fe:e9:f2:c0:c2:00:3b:d6:cd:c5:02:58:
                    b3:34:92:be:24:b3:4f:33:ce:0e:60:59:f3:06:44:
                    94:66:da:e0:ba:d4:86:23:fc:2a:91:a0:fb:7b:69:
                    91:1c:9a:60:7e:a8:9b:8c:e9:a7:dd:6b:fe:24:79:
                    59:4b:94:5e:1c:f0:e3:be:1e:45:e5:bf:ef:0b:e5:
                    17:d3:9d:21:e3:7a:3a:17:31:ba:93:0d:27:fc:fc:
                    d0:25:b0:5a:35:e6:ca:2d:56:2f:91:25:17:08:30:
                    ca:bb:a1:36:ce:76:2d:d6:de:a9:31:b1:fa:c7:5c:
                    b2:76:97:b8:37:d5:a6:26:45:04:c5:a3:88:af:54:
                    4e:63:ba:16:f9:36:6a:13:c6:fa:76:08:0d:b0:3e:
                    96:ad:01:8b:78:09:16:41:67:74:86:ef:d7:a4:ef:
                    01:ad:bc:c2:13:4e:fa:a6:20:f1:39:91:df:20:45:
                    95:e2:7e:a5:4a:66:88:bd:ec:d0:f1:a6:cd:3b:78:
                    4c:41
                Exponent: 65537 (0x10001)
        X509v3 extensions:
            X509v3 Basic Constraints: critical
                CA:FALSE
            X509v3 Subject Key Identifier: 
                04:91:7E:F3:F2:7F:CD:3B:DF:84:06:12:7A:59:7C:34:2A:08:B1:7D
            X509v3 Authority Key Identifier: 
                keyid:88:40:74:59:B6:E0:CB:B5:F1:BE:11:42:3E:83:44:87:64:48:DE:1A
                DirName:/C=FR/ST=IDF/L=Paris/O=Local NODE-OPCUA Certificate Authority/CN=NodeOPCUA-CA
                serial:A3:98:DF:C2:C5:F1:D7:B5

            X509v3 Subject Alternative Name: 
                URI:urn:8c8590cbfaea.ant.amazon.com:NodeOPCUA-Client, DNS:localhost, DNS:8c8590cbfaea.ant.amazon.com
            Netscape Comment: 
                OpenSSL Generated Certificate
            X509v3 Key Usage: critical
                Digital Signature, Non Repudiation, Key Encipherment, Data Encipherment, Key Agreement, Certificate Sign
            X509v3 Extended Key Usage: critical
                TLS Web Server Authentication, TLS Web Client Authentication
    Signature Algorithm: sha256WithRSAEncryption
         d0:3b:66:72:d7:3d:a4:27:8f:a1:99:43:35:e5:33:21:bb:49:
         9d:0a:59:cc:04:c7:fb:55:76:58:e6:62:59:ab:fd:eb:4f:6b:
         04:1c:38:9e:b1:fe:8f:90:13:ed:0d:cc:5f:13:af:68:43:51:
         df:69:cd:be:76:2e:70:1f:d7:fc:33:4e:a8:9b:fc:8c:44:73:
         39:48:8c:ee:dc:89:2f:73:c8:dd:dc:2f:e5:c8:ca:23:10:81:
         0e:f3:09:30:39:b8:52:6b:94:f2:35:8a:d2:48:7b:8b:aa:2f:
         e6:e9:f9:a9:c0:7d:d4:6b:10:95:e9:13:ac:e4:38:d2:bc:0e:
         93:60:b3:7b:ac:77:53:b4:8f:d3:b6:28:7c:4c:4c:44:18:a6:
         e3:5f:55:f5:97:64:ee:a0:ca:43:7f:90:5b:cb:f0:54:15:16:
         a8:15:e7:37:43:e0:3f:8c:e5:c6:e3:8a:06:f9:1a:b9:84:2f:
         36:95:b6:be:fb:1a:c5:77:16:8a:36:82:78:6a:68:ce:02:08:
         ff:3f:d3:a6:36:63:68:a8:13:f5:fc:6f:7d:48:ff:1b:1f:ad:
         f8:a9:c6:1c:a6:2b:fb:1b:73:cc:55:3c:9b:47:2c:5e:d7:1f:
         c8:26:a8:83:79:54:f4:76:c5:71:e4:40:cc:44:a9:d2:cc:d3:
         b1:c5:a3:63
-----BEGIN CERTIFICATE-----
MIIEyDCCA7CgAwIBAgICEAIwDQYJKoZIhvcNAQELBQAwczELMAkGA1UEBhMCRlIx
DDAKBgNVBAgTA0lERjEOMAwGA1UEBxMFUGFyaXMxLzAtBgNVBAoTJkxvY2FsIE5P
REUtT1BDVUEgQ2VydGlmaWNhdGUgQXV0aG9yaXR5MRUwEwYDVQQDEwxOb2RlT1BD
VUEtQ0EwIhgPMjAxOTA3MjUxMzUxNDlaGA8yMDIwMDcyNDEzNTE0OVowNTELMAkG
A1UEBhMCRlIxEjAQBgNVBAoMCU5vZGVPUENVQTESMBAGA1UEAwwJTm9kZU9QQ1VB
MIIBIjANBgkqhkiG9w0BAQEFAAOCAQ8AMIIBCgKCAQEAsWabVY77EcqKUkAuxjZy
anND60cDQmLTVr+lU9ygg0mwBr1ruahe0C7krkZBRdQw90sQ8aFFCZjPHb+aUBr+
6fLAwgA71s3FAlizNJK+JLNPM84OYFnzBkSUZtrgutSGI/wqkaD7e2mRHJpgfqib
jOmn3Wv+JHlZS5ReHPDjvh5F5b/vC+UX050h43o6FzG6kw0n/PzQJbBaNebKLVYv
kSUXCDDKu6E2znYt1t6pMbH6x1yydpe4N9WmJkUExaOIr1ROY7oW+TZqE8b6dggN
sD6WrQGLeAkWQWd0hu/XpO8BrbzCE076piDxOZHfIEWV4n6lSmaIvezQ8abNO3hM
QQIDAQABo4IBnjCCAZowDAYDVR0TAQH/BAIwADAdBgNVHQ4EFgQUBJF+8/J/zTvf
hAYSell8NCoIsX0wgaUGA1UdIwSBnTCBmoAUiEB0Wbbgy7XxvhFCPoNEh2RI3hqh
d6R1MHMxCzAJBgNVBAYTAkZSMQwwCgYDVQQIEwNJREYxDjAMBgNVBAcTBVBhcmlz
MS8wLQYDVQQKEyZMb2NhbCBOT0RFLU9QQ1VBIENlcnRpZmljYXRlIEF1dGhvcml0
eTEVMBMGA1UEAxMMTm9kZU9QQ1VBLUNBggkAo5jfwsXx17UwYwYDVR0RBFwwWoYw
dXJuOjhjODU5MGNiZmFlYS5hbnQuYW1hem9uLmNvbTpOb2RlT1BDVUEtQ2xpZW50
gglsb2NhbGhvc3SCGzhjODU5MGNiZmFlYS5hbnQuYW1hem9uLmNvbTAsBglghkgB
hvhCAQ0EHxYdT3BlblNTTCBHZW5lcmF0ZWQgQ2VydGlmaWNhdGUwDgYDVR0PAQH/
BAQDAgL8MCAGA1UdJQEB/wQWMBQGCCsGAQUFBwMBBggrBgEFBQcDAjANBgkqhkiG
9w0BAQsFAAOCAQEA0Dtmctc9pCePoZlDNeUzIbtJnQpZzATH+1V2WOZiWav9609r
BBw4nrH+j5AT7Q3MXxOvaENR32nNvnYucB/X/DNOqJv8jERzOUiM7tyJL3PI3dwv
5cjKIxCBDvMJMDm4UmuU8jWK0kh7i6ov5un5qcB91GsQlekTrOQ40rwOk2Cze6x3
U7SP07YofExMRBim419V9Zdk7qDKQ3+QW8vwVBUWqBXnN0PgP4zlxuOKBvkauYQv
NpW2vvsaxXcWijaCeGpozgII/z/TpjZjaKgT9fxvfUj/Gx+t+KnGHKYr+xtzzFU8
m0csXtcfyCaog3lU9HbFceRAzESp0szTscWjYw==
-----END CERTIFICATE-----
