Certificate:
    Data:
        Version: 3 (0x2)
        Serial Number: 4099 (0x1003)
    Signature Algorithm: sha256WithRSAEncryption
        Issuer: O=NodeOPCUA, CN=NodeOPCUA
        Validity
            Not Before: Jul 25 13:51:49 2019 GMT
            Not After : Jul 24 13:51:49 2020 GMT
        Subject: O=NodeOPCUA, CN=NodeOPCUA
        Subject Public Key Info:
            Public Key Algorithm: rsaEncryption
                Public-Key: (2048 bit)
                Modulus:
                    00:b1:66:9b:55:8e:fb:11:ca:8a:52:40:2e:c6:36:
                    72:6a:73:43:eb:47:03:42:62:d3:56:bf:a5:53:dc:
                    a0:83:49:b0:06:bd:6b:b9:a8:5e:d0:2e:e4:ae:46:
                    41:45:d4:30:f7:4b:10:f1:a1:45:09:98:cf:1d:bf:
                    9a:50:1a:fe:e9:f2:c0:c2:00:3b:d6:cd:c5:02:58:
                    b3:34:92:be:24:b3:4f:33:ce:0e:60:59:f3:06:44:
                    94:66:da:e0:ba:d4:86:23:fc:2a:91:a0:fb:7b:69:
                    91:1c:9a:60:7e:a8:9b:8c:e9:a7:dd:6b:fe:24:79:
                    59:4b:94:5e:1c:f0:e3:be:1e:45:e5:bf:ef:0b:e5:
                    17:d3:9d:21:e3:7a:3a:17:31:ba:93:0d:27:fc:fc:
                    d0:25:b0:5a:35:e6:ca:2d:56:2f:91:25:17:08:30:
                    ca:bb:a1:36:ce:76:2d:d6:de:a9:31:b1:fa:c7:5c:
                    b2:76:97:b8:37:d5:a6:26:45:04:c5:a3:88:af:54:
                    4e:63:ba:16:f9:36:6a:13:c6:fa:76:08:0d:b0:3e:
                    96:ad:01:8b:78:09:16:41:67:74:86:ef:d7:a4:ef:
                    01:ad:bc:c2:13:4e:fa:a6:20:f1:39:91:df:20:45:
                    95:e2:7e:a5:4a:66:88:bd:ec:d0:f1:a6:cd:3b:78:
                    4c:41
                Exponent: 65537 (0x10001)
        X509v3 extensions:
            X509v3 Basic Constraints: critical
                CA:FALSE
            X509v3 Subject Key Identifier: 
                04:91:7E:F3:F2:7F:CD:3B:DF:84:06:12:7A:59:7C:34:2A:08:B1:7D
            X509v3 Authority Key Identifier: 
                keyid:04:91:7E:F3:F2:7F:CD:3B:DF:84:06:12:7A:59:7C:34:2A:08:B1:7D
                DirName:/O=NodeOPCUA/CN=NodeOPCUA
                serial:10:03

            X509v3 Subject Alternative Name: 
                URI:urn:8c8590cbfaea.ant.amazon.com:NodeOPCUA-Client, DNS:localhost, DNS:8c8590cbfaea.ant.amazon.com
            Netscape Comment: 
                OpenSSL Generated Certificate
            X509v3 Key Usage: critical
                Digital Signature, Non Repudiation, Key Encipherment, Data Encipherment, Key Agreement, Certificate Sign
            X509v3 Extended Key Usage: critical
                TLS Web Server Authentication, TLS Web Client Authentication
    Signature Algorithm: sha256WithRSAEncryption
         59:b3:73:fa:44:87:36:b9:48:ee:db:f8:29:bc:68:83:65:28:
         6c:e3:d5:7c:47:86:b3:cb:d8:17:18:8c:10:2a:a3:05:45:59:
         cc:f7:0a:e9:6b:37:41:bd:05:9d:99:34:40:4b:67:6d:08:2e:
         34:96:16:6e:6d:09:87:96:52:4e:7c:2d:4a:31:a2:d2:74:82:
         15:d9:78:c4:18:ed:bf:9c:0a:9d:f0:4d:c0:32:bf:a4:1f:e2:
         e4:15:a7:dc:e5:1b:cb:20:d0:3a:bc:02:66:54:29:e0:bc:50:
         0a:10:d0:ca:4e:64:22:d4:9d:59:ac:9e:6e:6c:82:2a:aa:e0:
         3d:58:bd:ac:02:80:a3:80:d1:14:23:8f:3f:a8:7d:88:e1:0d:
         55:d5:7e:88:f5:66:0d:8c:54:98:cc:e8:fc:a8:c8:8b:71:62:
         6d:70:fa:05:74:71:ae:a0:53:21:0a:6e:d8:72:93:c5:16:96:
         72:69:83:fe:d9:84:d6:76:13:ab:6e:f9:d1:b4:ac:1e:61:5e:
         1b:4e:fe:d9:68:96:b5:35:a2:b4:f8:d1:8d:c4:5c:76:04:ef:
         76:6b:f8:8b:ca:d4:db:9b:98:21:01:ae:2d:7b:dd:ca:c4:82:
         92:9c:ea:73:1a:a8:96:65:e6:1c:9e:0d:c9:f9:c6:aa:e4:0a:
         f7:ee:25:97
-----BEGIN CERTIFICATE-----
MIIEGzCCAwOgAwIBAgICEAMwDQYJKoZIhvcNAQELBQAwKDESMBAGA1UEChMJTm9k
ZU9QQ1VBMRIwEAYDVQQDEwlOb2RlT1BDVUEwIhgPMjAxOTA3MjUxMzUxNDlaGA8y
MDIwMDcyNDEzNTE0OVowKDESMBAGA1UEChMJTm9kZU9QQ1VBMRIwEAYDVQQDEwlO
b2RlT1BDVUEwggEiMA0GCSqGSIb3DQEBAQUAA4IBDwAwggEKAoIBAQCxZptVjvsR
yopSQC7GNnJqc0PrRwNCYtNWv6VT3KCDSbAGvWu5qF7QLuSuRkFF1DD3SxDxoUUJ
mM8dv5pQGv7p8sDCADvWzcUCWLM0kr4ks08zzg5gWfMGRJRm2uC61IYj/CqRoPt7
aZEcmmB+qJuM6afda/4keVlLlF4c8OO+HkXlv+8L5RfTnSHjejoXMbqTDSf8/NAl
sFo15sotVi+RJRcIMMq7oTbOdi3W3qkxsfrHXLJ2l7g31aYmRQTFo4ivVE5juhb5
NmoTxvp2CA2wPpatAYt4CRZBZ3SG79ek7wGtvMITTvqmIPE5kd8gRZXifqVKZoi9
7NDxps07eExBAgMBAAGjggFJMIIBRTAMBgNVHRMBAf8EAjAAMB0GA1UdDgQWBBQE
kX7z8n/NO9+EBhJ6WXw0KgixfTBRBgNVHSMESjBIgBQEkX7z8n/NO9+EBhJ6WXw0
KgixfaEspCowKDESMBAGA1UEChMJTm9kZU9QQ1VBMRIwEAYDVQQDEwlOb2RlT1BD
VUGCAhADMGMGA1UdEQRcMFqGMHVybjo4Yzg1OTBjYmZhZWEuYW50LmFtYXpvbi5j
b206Tm9kZU9QQ1VBLUNsaWVudIIJbG9jYWxob3N0ghs4Yzg1OTBjYmZhZWEuYW50
LmFtYXpvbi5jb20wLAYJYIZIAYb4QgENBB8WHU9wZW5TU0wgR2VuZXJhdGVkIENl
cnRpZmljYXRlMA4GA1UdDwEB/wQEAwIC/DAgBgNVHSUBAf8EFjAUBggrBgEFBQcD
AQYIKwYBBQUHAwIwDQYJKoZIhvcNAQELBQADggEBAFmzc/pEhza5SO7b+Cm8aINl
KGzj1XxHhrPL2BcYjBAqowVFWcz3CulrN0G9BZ2ZNEBLZ20ILjSWFm5tCYeWUk58
LUoxotJ0ghXZeMQY7b+cCp3wTcAyv6Qf4uQVp9zlG8sg0Dq8AmZUKeC8UAoQ0MpO
ZCLUnVmsnm5sgiqq4D1YvawCgKOA0RQjjz+ofYjhDVXVfoj1Zg2MVJjM6PyoyItx
Ym1w+gV0ca6gUyEKbthyk8UWlnJpg/7ZhNZ2E6tu+dG0rB5hXhtO/tlolrU1orT4
0Y3EXHYE73Zr+IvK1NubmCEBri173crEgpKc6nMaqJZl5hyeDcn5xqrkCvfuJZc=
-----END CERTIFICATE-----
