Certificate:
    Data:
        Version: 3 (0x2)
        Serial Number: 4100 (0x1004)
    Signature Algorithm: sha256WithRSAEncryption
        Issuer: C=FR, ST=IDF, L=Paris, O=Local NODE-OPCUA Certificate Authority, CN=NodeOPCUA-CA
        Validity
            Not Before: Jul 25 13:51:49 2019 GMT
            Not After : Jul 24 13:51:49 2020 GMT
        Subject: C=FR, O=NodeOPCUA, CN=NodeOPCUA
        Subject Public Key Info:
            Public Key Algorithm: rsaEncryption
                Public-Key: (1024 bit)
                Modulus:
                    00:c0:93:82:bd:26:5d:8b:2c:96:31:ec:f2:82:c6:
                    66:72:65:c2:9e:25:a6:d3:5e:a8:e0:ec:12:96:73:
                    94:b6:d1:43:37:4f:3f:5d:8e:17:14:8b:19:5d:4d:
                    1c:e2:13:84:8b:67:e9:ff:aa:bd:9c:cd:2c:db:26:
                    30:25:9a:ba:fb:b3:52:fa:15:09:56:5a:aa:31:43:
                    21:7e:67:97:88:f5:73:28:69:70:28:33:c1:bd:86:
                    d4:73:95:f9:62:a4:0a:f6:53:b1:cf:df:61:88:ba:
                    6a:a2:2c:0a:39:43:b8:8c:7f:16:65:62:3d:d2:02:
                    92:61:d7:8b:4d:98:3e:59:81
                Exponent: 65537 (0x10001)
        X509v3 extensions:
            X509v3 Basic Constraints: critical
                CA:FALSE
            X509v3 Subject Key Identifier: 
                D4:B9:EF:EC:C6:C9:5C:D9:E7:3F:50:7B:95:27:80:B9:84:69:36:95
            X509v3 Authority Key Identifier: 
                keyid:88:40:74:59:B6:E0:CB:B5:F1:BE:11:42:3E:83:44:87:64:48:DE:1A
                DirName:/C=FR/ST=IDF/L=Paris/O=Local NODE-OPCUA Certificate Authority/CN=NodeOPCUA-CA
                serial:A3:98:DF:C2:C5:F1:D7:B5

            X509v3 Subject Alternative Name: 
                URI:urn:8c8590cbfaea.ant.amazon.com:NodeOPCUA-Server, DNS:localhost, DNS:8c8590cbfaea.ant.amazon.com
            Netscape Comment: 
                OpenSSL Generated Certificate
            X509v3 Key Usage: critical
                Digital Signature, Non Repudiation, Key Encipherment, Data Encipherment, Key Agreement, Certificate Sign
            X509v3 Extended Key Usage: critical
                TLS Web Server Authentication, TLS Web Client Authentication
    Signature Algorithm: sha256WithRSAEncryption
         09:4f:31:b8:c9:1a:5a:1a:cf:99:92:01:9a:fd:9f:73:2e:d9:
         53:04:2b:98:b9:d4:14:c0:08:e3:93:ca:df:26:6d:33:66:5d:
         93:05:86:14:50:59:12:ba:84:87:03:d2:b4:af:0e:54:34:ad:
         e3:ae:cf:de:9d:97:43:3d:21:8b:f2:a4:aa:e9:33:59:24:5e:
         f1:fb:23:5c:8d:3f:3c:e8:38:5e:f0:6f:f2:c0:95:33:63:e5:
         bf:03:d8:b0:a7:99:eb:ab:e4:d5:89:d0:66:94:19:da:07:2c:
         b5:7f:27:49:32:1d:09:41:47:7b:d4:88:19:9e:33:2d:cd:aa:
         3a:2e:a8:6a:ce:cb:7d:78:3b:90:4f:8e:2a:33:3f:1e:e7:11:
         9b:79:39:75:28:fa:6f:ab:20:cc:2a:47:71:2a:8a:58:e8:59:
         b0:31:47:76:ca:e4:30:30:fc:4e:20:32:1f:43:9f:7e:a3:90:
         8e:88:27:4c:d7:ff:c4:9b:5c:11:e7:c8:4d:4f:7c:31:52:c9:
         ab:d4:22:4d:21:5b:e1:75:66:6e:08:9b:31:48:3a:7c:09:42:
         44:1d:94:57:c7:a5:5e:cf:de:54:d4:b1:05:f5:de:ac:af:e3:
         22:1f:a1:57:85:a7:5e:1d:6d:a8:8f:44:ad:5b:80:fc:97:6a:
         6b:16:24:2e
-----BEGIN CERTIFICATE-----
MIIERDCCAyygAwIBAgICEAQwDQYJKoZIhvcNAQELBQAwczELMAkGA1UEBhMCRlIx
DDAKBgNVBAgTA0lERjEOMAwGA1UEBxMFUGFyaXMxLzAtBgNVBAoTJkxvY2FsIE5P
REUtT1BDVUEgQ2VydGlmaWNhdGUgQXV0aG9yaXR5MRUwEwYDVQQDEwxOb2RlT1BD
VUEtQ0EwIhgPMjAxOTA3MjUxMzUxNDlaGA8yMDIwMDcyNDEzNTE0OVowNTELMAkG
A1UEBhMCRlIxEjAQBgNVBAoMCU5vZGVPUENVQTESMBAGA1UEAwwJTm9kZU9QQ1VB
MIGfMA0GCSqGSIb3DQEBAQUAA4GNADCBiQKBgQDAk4K9Jl2LLJYx7PKCxmZyZcKe
JabTXqjg7BKWc5S20UM3Tz9djhcUixldTRziE4SLZ+n/qr2czSzbJjAlmrr7s1L6
FQlWWqoxQyF+Z5eI9XMoaXAoM8G9htRzlflipAr2U7HP32GIumqiLAo5Q7iMfxZl
Yj3SApJh14tNmD5ZgQIDAQABo4IBnjCCAZowDAYDVR0TAQH/BAIwADAdBgNVHQ4E
FgQU1Lnv7MbJXNnnP1B7lSeAuYRpNpUwgaUGA1UdIwSBnTCBmoAUiEB0Wbbgy7Xx
vhFCPoNEh2RI3hqhd6R1MHMxCzAJBgNVBAYTAkZSMQwwCgYDVQQIEwNJREYxDjAM
BgNVBAcTBVBhcmlzMS8wLQYDVQQKEyZMb2NhbCBOT0RFLU9QQ1VBIENlcnRpZmlj
YXRlIEF1dGhvcml0eTEVMBMGA1UEAxMMTm9kZU9QQ1VBLUNBggkAo5jfwsXx17Uw
YwYDVR0RBFwwWoYwdXJuOjhjODU5MGNiZmFlYS5hbnQuYW1hem9uLmNvbTpOb2Rl
T1BDVUEtU2VydmVygglsb2NhbGhvc3SCGzhjODU5MGNiZmFlYS5hbnQuYW1hem9u
LmNvbTAsBglghkgBhvhCAQ0EHxYdT3BlblNTTCBHZW5lcmF0ZWQgQ2VydGlmaWNh
dGUwDgYDVR0PAQH/BAQDAgL8MCAGA1UdJQEB/wQWMBQGCCsGAQUFBwMBBggrBgEF
BQcDAjANBgkqhkiG9w0BAQsFAAOCAQEACU8xuMkaWhrPmZIBmv2fcy7ZUwQrmLnU
FMAI45PK3yZtM2ZdkwWGFFBZErqEhwPStK8OVDSt467P3p2XQz0hi/KkqukzWSRe
8fsjXI0/POg4XvBv8sCVM2PlvwPYsKeZ66vk1YnQZpQZ2gcstX8nSTIdCUFHe9SI
GZ4zLc2qOi6oas7LfXg7kE+OKjM/HucRm3k5dSj6b6sgzCpHcSqKWOhZsDFHdsrk
MDD8TiAyH0OffqOQjognTNf/xJtcEefITU98MVLJq9QiTSFb4XVmbgibMUg6fAlC
RB2UV8elXs/eVNSxBfXerK/jIh+hV4WnXh1tqI9ErVuA/JdqaxYkLg==
-----END CERTIFICATE-----
