Certificate:
    Data:
        Version: 3 (0x2)
        Serial Number: 4102 (0x1006)
    Signature Algorithm: sha256WithRSAEncryption
        Issuer: C=FR, ST=IDF, L=Paris, O=Local NODE-OPCUA Certificate Authority, CN=NodeOPCUA-CA
        Validity
            Not Before: Jul 25 13:51:49 2019 GMT
            Not After : Jul 24 13:51:49 2020 GMT
        Subject: C=FR, O=NodeOPCUA, CN=NodeOPCUA
        Subject Public Key Info:
            Public Key Algorithm: rsaEncryption
                Public-Key: (2048 bit)
                Modulus:
                    00:d2:97:4d:58:0f:cf:31:a2:99:57:2c:00:01:58:
                    ca:8e:04:26:81:85:9f:2f:08:6f:d7:09:e2:e4:b5:
                    fc:23:ad:73:f1:1c:bf:60:22:ee:d1:22:4b:16:0d:
                    fe:5b:0b:68:0e:09:df:ed:2e:62:d5:50:0d:85:70:
                    8d:fc:4e:97:d6:ad:43:0b:1d:dd:dd:dd:b4:7e:71:
                    66:7c:92:d1:ee:39:f6:e3:95:cd:77:08:a2:a6:62:
                    d7:07:32:ab:73:7d:db:10:6d:de:59:33:5a:41:40:
                    ab:3d:06:88:f4:66:9d:ab:2e:b1:c5:b0:78:45:c8:
                    13:22:1b:17:67:6c:42:fa:62:ce:ee:4f:93:16:70:
                    e8:8c:8f:80:f1:1e:f2:4b:56:76:e7:c8:9d:f8:12:
                    e2:fb:b9:43:80:dc:4a:01:45:ec:38:48:1d:62:fd:
                    10:0a:2e:61:fb:a1:95:38:47:e4:9b:a7:87:8f:a4:
                    cd:af:0e:5f:4c:1a:8e:fe:34:2f:6f:c9:20:4d:e9:
                    7a:8a:28:16:fc:f6:c0:50:32:89:f8:76:4b:77:c4:
                    be:2e:10:01:1d:24:9b:4a:47:10:cb:88:a0:06:16:
                    ed:4d:b0:16:dd:46:3b:b7:f0:5e:c6:10:30:14:4c:
                    47:7e:3f:b2:c0:88:60:32:07:86:04:a6:cf:a2:d1:
                    27:91
                Exponent: 65537 (0x10001)
        X509v3 extensions:
            X509v3 Basic Constraints: critical
                CA:FALSE
            X509v3 Subject Key Identifier: 
                CE:07:FD:A8:01:51:27:33:D7:01:ED:3B:68:D2:63:91:A2:45:1D:CA
            X509v3 Authority Key Identifier: 
                keyid:88:40:74:59:B6:E0:CB:B5:F1:BE:11:42:3E:83:44:87:64:48:DE:1A
                DirName:/C=FR/ST=IDF/L=Paris/O=Local NODE-OPCUA Certificate Authority/CN=NodeOPCUA-CA
                serial:A3:98:DF:C2:C5:F1:D7:B5

            X509v3 Subject Alternative Name: 
                URI:urn:8c8590cbfaea.ant.amazon.com:NodeOPCUA-Server, DNS:localhost, DNS:8c8590cbfaea.ant.amazon.com
            Netscape Comment: 
                OpenSSL Generated Certificate
            X509v3 Key Usage: critical
                Digital Signature, Non Repudiation, Key Encipherment, Data Encipherment, Key Agreement, Certificate Sign
            X509v3 Extended Key Usage: critical
                TLS Web Server Authentication, TLS Web Client Authentication
    Signature Algorithm: sha256WithRSAEncryption
         3e:53:03:8e:a2:b8:3c:69:48:e0:4d:74:32:d3:6e:ea:d9:2f:
         45:a9:96:92:b4:3e:9a:51:44:bc:7c:74:ea:65:6a:83:9e:6a:
         56:37:0e:5c:98:2b:02:9c:56:69:18:69:43:cd:01:c8:9e:d2:
         c0:52:02:4c:ef:b6:13:ea:49:6b:0e:a4:fd:de:c4:41:91:c4:
         46:15:a8:c7:3b:70:e1:18:f5:ec:19:06:c1:ac:e7:10:d3:da:
         47:e5:4f:50:62:66:fc:a2:e0:0f:ac:85:74:0c:e2:4c:fe:7b:
         18:fc:07:6b:98:bd:26:f5:43:7a:65:8f:b7:f4:57:94:5b:60:
         29:42:f2:f9:87:ad:83:46:51:a2:63:48:ac:7a:50:4c:3f:16:
         f6:bf:5b:47:77:25:89:fd:2e:d2:8c:56:24:c2:d7:1e:19:57:
         b2:ce:f5:ed:93:cb:ca:fe:45:9b:3d:e9:af:97:d9:38:c8:8c:
         4e:8f:a5:02:cb:e6:7a:b1:df:6a:f3:5b:ab:d6:97:7a:58:7c:
         c2:1d:a1:06:ca:fc:65:67:91:eb:f6:38:26:b5:6c:25:32:53:
         ad:05:86:3e:90:a5:f9:4f:7f:b0:30:3a:4c:bf:8a:f5:2e:12:
         6e:08:64:7a:63:78:41:5c:11:72:8f:41:1a:57:b8:ea:98:56:
         73:dd:a2:a4
-----BEGIN CERTIFICATE-----
MIIEyDCCA7CgAwIBAgICEAYwDQYJKoZIhvcNAQELBQAwczELMAkGA1UEBhMCRlIx
DDAKBgNVBAgTA0lERjEOMAwGA1UEBxMFUGFyaXMxLzAtBgNVBAoTJkxvY2FsIE5P
REUtT1BDVUEgQ2VydGlmaWNhdGUgQXV0aG9yaXR5MRUwEwYDVQQDEwxOb2RlT1BD
VUEtQ0EwIhgPMjAxOTA3MjUxMzUxNDlaGA8yMDIwMDcyNDEzNTE0OVowNTELMAkG
A1UEBhMCRlIxEjAQBgNVBAoMCU5vZGVPUENVQTESMBAGA1UEAwwJTm9kZU9QQ1VB
MIIBIjANBgkqhkiG9w0BAQEFAAOCAQ8AMIIBCgKCAQEA0pdNWA/PMaKZVywAAVjK
jgQmgYWfLwhv1wni5LX8I61z8Ry/YCLu0SJLFg3+WwtoDgnf7S5i1VANhXCN/E6X
1q1DCx3d3d20fnFmfJLR7jn245XNdwiipmLXBzKrc33bEG3eWTNaQUCrPQaI9Gad
qy6xxbB4RcgTIhsXZ2xC+mLO7k+TFnDojI+A8R7yS1Z258id+BLi+7lDgNxKAUXs
OEgdYv0QCi5h+6GVOEfkm6eHj6TNrw5fTBqO/jQvb8kgTel6iigW/PbAUDKJ+HZL
d8S+LhABHSSbSkcQy4igBhbtTbAW3UY7t/BexhAwFExHfj+ywIhgMgeGBKbPotEn
kQIDAQABo4IBnjCCAZowDAYDVR0TAQH/BAIwADAdBgNVHQ4EFgQUzgf9qAFRJzPX
Ae07aNJjkaJFHcowgaUGA1UdIwSBnTCBmoAUiEB0Wbbgy7XxvhFCPoNEh2RI3hqh
d6R1MHMxCzAJBgNVBAYTAkZSMQwwCgYDVQQIEwNJREYxDjAMBgNVBAcTBVBhcmlz
MS8wLQYDVQQKEyZMb2NhbCBOT0RFLU9QQ1VBIENlcnRpZmljYXRlIEF1dGhvcml0
eTEVMBMGA1UEAxMMTm9kZU9QQ1VBLUNBggkAo5jfwsXx17UwYwYDVR0RBFwwWoYw
dXJuOjhjODU5MGNiZmFlYS5hbnQuYW1hem9uLmNvbTpOb2RlT1BDVUEtU2VydmVy
gglsb2NhbGhvc3SCGzhjODU5MGNiZmFlYS5hbnQuYW1hem9uLmNvbTAsBglghkgB
hvhCAQ0EHxYdT3BlblNTTCBHZW5lcmF0ZWQgQ2VydGlmaWNhdGUwDgYDVR0PAQH/
BAQDAgL8MCAGA1UdJQEB/wQWMBQGCCsGAQUFBwMBBggrBgEFBQcDAjANBgkqhkiG
9w0BAQsFAAOCAQEAPlMDjqK4PGlI4E10MtNu6tkvRamWkrQ+mlFEvHx06mVqg55q
VjcOXJgrApxWaRhpQ80ByJ7SwFICTO+2E+pJaw6k/d7EQZHERhWoxztw4Rj17BkG
waznENPaR+VPUGJm/KLgD6yFdAziTP57GPwHa5i9JvVDemWPt/RXlFtgKULy+Yet
g0ZRomNIrHpQTD8W9r9bR3clif0u0oxWJMLXHhlXss717ZPLyv5Fmz3pr5fZOMiM
To+lAsvmerHfavNbq9aXelh8wh2hBsr8ZWeR6/Y4JrVsJTJTrQWGPpCl+U9/sDA6
TL+K9S4SbghkemN4QVwRco9BGle46phWc92ipA==
-----END CERTIFICATE-----
