Certificate:
    Data:
        Version: 3 (0x2)
        Serial Number: 4104 (0x1008)
    Signature Algorithm: sha256WithRSAEncryption
        Issuer: C=FR, ST=IDF, L=Paris, O=Local NODE-OPCUA Certificate Authority, CN=NodeOPCUA-CA
        Validity
            Not Before: Jul 25 13:51:49 2019 GMT
            Not After : Jul 24 13:51:49 2020 GMT
        Subject: C=FR, O=NodeOPCUA, CN=NodeOPCUA
        Subject Public Key Info:
            Public Key Algorithm: rsaEncryption
                Public-Key: (1024 bit)
                Modulus:
                    00:c8:ce:c9:4b:01:3f:7b:8e:7b:44:3b:1e:bb:b0:
                    35:c5:86:b6:9e:e1:89:21:75:89:38:c3:ed:23:cc:
                    c7:74:ac:c9:ab:87:c4:07:26:86:36:1a:2a:af:74:
                    df:88:83:0b:a4:3a:34:ba:58:d2:7a:67:a6:03:da:
                    02:c2:3c:aa:77:f2:89:c3:4e:89:bf:fc:b2:f0:a7:
                    a3:e9:02:3b:30:ac:07:1f:c5:67:8e:61:36:a7:aa:
                    9e:e9:a1:87:fd:2a:1d:6a:c3:d2:73:fb:d7:c8:fb:
                    3f:92:2d:30:d8:6e:bc:27:88:75:de:09:4e:cc:b6:
                    20:f8:05:cb:b5:09:80:40:eb
                Exponent: 65537 (0x10001)
        X509v3 extensions:
            X509v3 Basic Constraints: critical
                CA:FALSE
            X509v3 Subject Key Identifier: 
                E6:18:2F:E1:D3:04:37:55:7B:9A:F1:A9:2E:22:AC:54:33:98:3B:DF
            X509v3 Authority Key Identifier: 
                keyid:88:40:74:59:B6:E0:CB:B5:F1:BE:11:42:3E:83:44:87:64:48:DE:1A
                DirName:/C=FR/ST=IDF/L=Paris/O=Local NODE-OPCUA Certificate Authority/CN=NodeOPCUA-CA
                serial:A3:98:DF:C2:C5:F1:D7:B5

            X509v3 Subject Alternative Name: 
                URI:urn:8c8590cbfaea.ant.amazon.com:NodeOPCUA-DiscoveryServer, DNS:localhost, DNS:8c8590cbfaea.ant.amazon.com
            Netscape Comment: 
                OpenSSL Generated Certificate
            X509v3 Key Usage: critical
                Digital Signature, Non Repudiation, Key Encipherment, Data Encipherment, Key Agreement, Certificate Sign
            X509v3 Extended Key Usage: critical
                TLS Web Server Authentication, TLS Web Client Authentication
    Signature Algorithm: sha256WithRSAEncryption
         d7:5e:7c:00:7a:36:31:32:81:3f:cb:82:93:27:da:2f:78:eb:
         29:49:6f:ad:cf:30:44:bd:48:82:a1:98:93:8d:fb:6d:3b:a4:
         68:39:4b:a2:23:27:d2:cc:6a:e2:b4:56:49:e1:ca:94:6b:f3:
         02:18:88:85:0a:d1:75:79:c1:84:30:f1:39:fb:89:ef:e6:e8:
         1e:1b:91:9e:a0:46:7d:83:ee:de:c9:aa:73:97:24:9a:5d:28:
         12:58:2c:95:f3:2a:cc:e0:10:6f:57:5b:25:e6:22:74:d9:a1:
         e1:5b:ce:7d:f9:11:f1:f3:ef:53:1d:7e:81:44:dd:23:12:e6:
         8a:b2:89:cf:b5:f6:58:1a:a0:a3:2e:2f:2f:b8:cb:70:f6:c8:
         b5:6e:73:9d:b2:7d:98:82:1c:55:81:1e:c2:b8:f7:9f:da:d1:
         fd:bd:19:9c:86:84:12:e0:98:ce:87:78:36:e8:02:ae:e8:3a:
         d6:c6:40:ff:74:45:db:d2:36:d9:cd:5a:06:cf:b1:89:12:f6:
         ff:90:50:9e:30:7e:98:1e:39:ab:bd:6d:11:85:d6:75:1c:82:
         f7:b5:2d:5c:af:f6:5c:2f:b8:fd:4b:c1:d5:3d:14:53:42:09:
         28:a5:f1:50:57:c8:a9:5f:67:82:e2:95:82:f5:3a:57:98:24:
         0a:58:d6:25
-----BEGIN CERTIFICATE-----
MIIETTCCAzWgAwIBAgICEAgwDQYJKoZIhvcNAQELBQAwczELMAkGA1UEBhMCRlIx
DDAKBgNVBAgTA0lERjEOMAwGA1UEBxMFUGFyaXMxLzAtBgNVBAoTJkxvY2FsIE5P
REUtT1BDVUEgQ2VydGlmaWNhdGUgQXV0aG9yaXR5MRUwEwYDVQQDEwxOb2RlT1BD
VUEtQ0EwIhgPMjAxOTA3MjUxMzUxNDlaGA8yMDIwMDcyNDEzNTE0OVowNTELMAkG
A1UEBhMCRlIxEjAQBgNVBAoMCU5vZGVPUENVQTESMBAGA1UEAwwJTm9kZU9QQ1VB
MIGfMA0GCSqGSIb3DQEBAQUAA4GNADCBiQKBgQDIzslLAT97jntEOx67sDXFhrae
4YkhdYk4w+0jzMd0rMmrh8QHJoY2GiqvdN+IgwukOjS6WNJ6Z6YD2gLCPKp38onD
Tom//LLwp6PpAjswrAcfxWeOYTanqp7poYf9Kh1qw9Jz+9fI+z+SLTDYbrwniHXe
CU7MtiD4Bcu1CYBA6wIDAQABo4IBpzCCAaMwDAYDVR0TAQH/BAIwADAdBgNVHQ4E
FgQU5hgv4dMEN1V7mvGpLiKsVDOYO98wgaUGA1UdIwSBnTCBmoAUiEB0Wbbgy7Xx
vhFCPoNEh2RI3hqhd6R1MHMxCzAJBgNVBAYTAkZSMQwwCgYDVQQIEwNJREYxDjAM
BgNVBAcTBVBhcmlzMS8wLQYDVQQKEyZMb2NhbCBOT0RFLU9QQ1VBIENlcnRpZmlj
YXRlIEF1dGhvcml0eTEVMBMGA1UEAxMMTm9kZU9QQ1VBLUNBggkAo5jfwsXx17Uw
bAYDVR0RBGUwY4Y5dXJuOjhjODU5MGNiZmFlYS5hbnQuYW1hem9uLmNvbTpOb2Rl
T1BDVUEtRGlzY292ZXJ5U2VydmVygglsb2NhbGhvc3SCGzhjODU5MGNiZmFlYS5h
bnQuYW1hem9uLmNvbTAsBglghkgBhvhCAQ0EHxYdT3BlblNTTCBHZW5lcmF0ZWQg
Q2VydGlmaWNhdGUwDgYDVR0PAQH/BAQDAgL8MCAGA1UdJQEB/wQWMBQGCCsGAQUF
BwMBBggrBgEFBQcDAjANBgkqhkiG9w0BAQsFAAOCAQEA1158AHo2MTKBP8uCkyfa
L3jrKUlvrc8wRL1IgqGYk437bTukaDlLoiMn0sxq4rRWSeHKlGvzAhiIhQrRdXnB
hDDxOfuJ7+boHhuRnqBGfYPu3smqc5ckml0oElgslfMqzOAQb1dbJeYidNmh4VvO
ffkR8fPvUx1+gUTdIxLmirKJz7X2WBqgoy4vL7jLcPbItW5znbJ9mIIcVYEewrj3
n9rR/b0ZnIaEEuCYzod4NugCrug61sZA/3RF29I22c1aBs+xiRL2/5BQnjB+mB45
q71tEYXWdRyC97UtXK/2XC+4/UvB1T0UU0IJKKXxUFfIqV9nguKVgvU6V5gkCljW
JQ==
-----END CERTIFICATE-----
