Certificate:
    Data:
        Version: 3 (0x2)
        Serial Number: 4105 (0x1009)
    Signature Algorithm: sha256WithRSAEncryption
        Issuer: O=NodeOPCUA, CN=NodeOPCUA
        Validity
            Not Before: Jul 25 13:51:49 2019 GMT
            Not After : Jul 24 13:51:49 2020 GMT
        Subject: O=NodeOPCUA, CN=NodeOPCUA
        Subject Public Key Info:
            Public Key Algorithm: rsaEncryption
                Public-Key: (1024 bit)
                Modulus:
                    00:c8:ce:c9:4b:01:3f:7b:8e:7b:44:3b:1e:bb:b0:
                    35:c5:86:b6:9e:e1:89:21:75:89:38:c3:ed:23:cc:
                    c7:74:ac:c9:ab:87:c4:07:26:86:36:1a:2a:af:74:
                    df:88:83:0b:a4:3a:34:ba:58:d2:7a:67:a6:03:da:
                    02:c2:3c:aa:77:f2:89:c3:4e:89:bf:fc:b2:f0:a7:
                    a3:e9:02:3b:30:ac:07:1f:c5:67:8e:61:36:a7:aa:
                    9e:e9:a1:87:fd:2a:1d:6a:c3:d2:73:fb:d7:c8:fb:
                    3f:92:2d:30:d8:6e:bc:27:88:75:de:09:4e:cc:b6:
                    20:f8:05:cb:b5:09:80:40:eb
                Exponent: 65537 (0x10001)
        X509v3 extensions:
            X509v3 Basic Constraints: critical
                CA:FALSE
            X509v3 Subject Key Identifier: 
                E6:18:2F:E1:D3:04:37:55:7B:9A:F1:A9:2E:22:AC:54:33:98:3B:DF
            X509v3 Authority Key Identifier: 
                keyid:E6:18:2F:E1:D3:04:37:55:7B:9A:F1:A9:2E:22:AC:54:33:98:3B:DF
                DirName:/O=NodeOPCUA/CN=NodeOPCUA
                serial:10:09

            X509v3 Subject Alternative Name: 
                URI:urn:8c8590cbfaea.ant.amazon.com:NodeOPCUA-DiscoveryServer, DNS:localhost, DNS:8c8590cbfaea.ant.amazon.com
            Netscape Comment: 
                OpenSSL Generated Certificate
            X509v3 Key Usage: critical
                Digital Signature, Non Repudiation, Key Encipherment, Data Encipherment, Key Agreement, Certificate Sign
            X509v3 Extended Key Usage: critical
                TLS Web Server Authentication, TLS Web Client Authentication
    Signature Algorithm: sha256WithRSAEncryption
         3c:be:e8:af:c5:8d:93:f7:91:02:ea:dc:60:2b:26:b2:04:95:
         82:d0:d8:e3:34:68:c9:5e:cb:28:37:f2:bf:f9:d3:b5:b4:22:
         ed:8f:df:1d:b6:bf:81:b3:f7:e7:c3:ce:29:d8:9e:ff:7c:a2:
         e4:94:17:47:ee:60:d3:5c:ed:52:f7:a0:0a:ad:4c:d0:05:9a:
         5b:a2:17:ad:9e:e0:3f:96:f2:31:54:b2:0b:67:5a:77:ed:48:
         df:a2:0d:be:77:01:ac:b5:41:ce:d2:91:3d:81:03:31:ab:80:
         6c:75:99:97:d6:a8:41:0a:0b:7a:a6:12:f8:52:f7:51:da:9a:
         3b:c6
-----BEGIN CERTIFICATE-----
MIIDHzCCAoigAwIBAgICEAkwDQYJKoZIhvcNAQELBQAwKDESMBAGA1UEChMJTm9k
ZU9QQ1VBMRIwEAYDVQQDEwlOb2RlT1BDVUEwIhgPMjAxOTA3MjUxMzUxNDlaGA8y
MDIwMDcyNDEzNTE0OVowKDESMBAGA1UEChMJTm9kZU9QQ1VBMRIwEAYDVQQDEwlO
b2RlT1BDVUEwgZ8wDQYJKoZIhvcNAQEBBQADgY0AMIGJAoGBAMjOyUsBP3uOe0Q7
HruwNcWGtp7hiSF1iTjD7SPMx3SsyauHxAcmhjYaKq9034iDC6Q6NLpY0npnpgPa
AsI8qnfyicNOib/8svCno+kCOzCsBx/FZ45hNqeqnumhh/0qHWrD0nP718j7P5It
MNhuvCeIdd4JTsy2IPgFy7UJgEDrAgMBAAGjggFSMIIBTjAMBgNVHRMBAf8EAjAA
MB0GA1UdDgQWBBTmGC/h0wQ3VXua8akuIqxUM5g73zBRBgNVHSMESjBIgBTmGC/h
0wQ3VXua8akuIqxUM5g736EspCowKDESMBAGA1UEChMJTm9kZU9QQ1VBMRIwEAYD
VQQDEwlOb2RlT1BDVUGCAhAJMGwGA1UdEQRlMGOGOXVybjo4Yzg1OTBjYmZhZWEu
YW50LmFtYXpvbi5jb206Tm9kZU9QQ1VBLURpc2NvdmVyeVNlcnZlcoIJbG9jYWxo
b3N0ghs4Yzg1OTBjYmZhZWEuYW50LmFtYXpvbi5jb20wLAYJYIZIAYb4QgENBB8W
HU9wZW5TU0wgR2VuZXJhdGVkIENlcnRpZmljYXRlMA4GA1UdDwEB/wQEAwIC/DAg
BgNVHSUBAf8EFjAUBggrBgEFBQcDAQYIKwYBBQUHAwIwDQYJKoZIhvcNAQELBQAD
gYEAPL7or8WNk/eRAurcYCsmsgSVgtDY4zRoyV7LKDfyv/nTtbQi7Y/fHba/gbP3
58POKdie/3yi5JQXR+5g01ztUvegCq1M0AWaW6IXrZ7gP5byMVSyC2dad+1I36IN
vncBrLVBztKRPYEDMauAbHWZl9aoQQoLeqYS+FL3UdqaO8Y=
-----END CERTIFICATE-----
