Certificate:
    Data:
        Version: 3 (0x2)
        Serial Number: 4106 (0x100a)
    Signature Algorithm: sha256WithRSAEncryption
        Issuer: C=FR, ST=IDF, L=Paris, O=Local NODE-OPCUA Certificate Authority, CN=NodeOPCUA-CA
        Validity
            Not Before: Jul 25 13:51:49 2019 GMT
            Not After : Jul 24 13:51:49 2020 GMT
        Subject: C=FR, O=NodeOPCUA, CN=NodeOPCUA
        Subject Public Key Info:
            Public Key Algorithm: rsaEncryption
                Public-Key: (2048 bit)
                Modulus:
                    00:cf:5f:fe:2a:ba:47:94:2f:fb:0a:87:8d:e3:64:
                    85:a3:93:31:51:4e:97:a4:b4:cc:9f:60:e1:34:67:
                    55:75:dd:67:34:ae:43:c2:50:23:6c:47:d4:7d:04:
                    b1:57:1e:7e:b6:9b:4c:41:45:07:8d:47:10:e3:6a:
                    28:83:cf:43:5f:5e:0c:0a:09:25:13:0b:2f:fa:07:
                    56:2f:0f:53:a2:2c:00:cb:5b:e4:ed:56:ee:3f:b0:
                    ef:de:2c:9e:a2:c0:a9:75:9d:5d:03:68:58:c6:00:
                    e9:eb:7c:c2:3b:af:1f:4b:f4:10:19:12:e3:28:e4:
                    90:43:04:3b:9e:af:51:b4:e4:b2:8a:f9:07:31:62:
                    77:4f:01:f2:f8:8b:d7:84:2a:f2:fb:ad:b6:0c:00:
                    67:a9:54:9e:3b:44:10:2d:af:de:68:69:de:46:42:
                    b2:75:44:3e:f2:a3:11:b2:34:3f:a2:1f:e7:38:b1:
                    22:2b:1f:7a:f9:ae:b4:43:e8:28:40:e4:14:ca:be:
                    8f:cc:0d:25:e5:61:aa:11:1f:3a:cb:dd:c1:92:48:
                    7b:2b:d2:8b:4d:8f:04:e7:ad:64:38:fc:03:7c:37:
                    b8:50:b9:42:78:81:96:fe:9b:bf:63:61:d3:2a:3c:
                    96:cd:04:dc:de:60:58:ec:64:8d:bf:01:a1:47:87:
                    22:fb
                Exponent: 65537 (0x10001)
        X509v3 extensions:
            X509v3 Basic Constraints: critical
                CA:FALSE
            X509v3 Subject Key Identifier: 
                0D:C1:44:20:76:4D:F3:BB:62:91:13:9D:A1:52:C6:9F:0B:70:EB:74
            X509v3 Authority Key Identifier: 
                keyid:88:40:74:59:B6:E0:CB:B5:F1:BE:11:42:3E:83:44:87:64:48:DE:1A
                DirName:/C=FR/ST=IDF/L=Paris/O=Local NODE-OPCUA Certificate Authority/CN=NodeOPCUA-CA
                serial:A3:98:DF:C2:C5:F1:D7:B5

            X509v3 Subject Alternative Name: 
                URI:urn:8c8590cbfaea.ant.amazon.com:NodeOPCUA-DiscoveryServer, DNS:localhost, DNS:8c8590cbfaea.ant.amazon.com
            Netscape Comment: 
                OpenSSL Generated Certificate
            X509v3 Key Usage: critical
                Digital Signature, Non Repudiation, Key Encipherment, Data Encipherment, Key Agreement, Certificate Sign
            X509v3 Extended Key Usage: critical
                TLS Web Server Authentication, TLS Web Client Authentication
    Signature Algorithm: sha256WithRSAEncryption
         d1:10:25:24:a9:7e:98:13:93:34:be:8b:52:05:a8:c1:59:f5:
         30:4b:11:c6:9a:30:9a:3f:30:5d:76:c4:e1:e0:b8:2a:2e:7b:
         b0:9c:af:5a:88:7b:84:d8:4d:ca:de:d2:a9:92:e0:05:e2:19:
         3d:2e:e9:b1:f1:d8:cc:1e:45:61:2f:75:9e:6d:f1:7d:58:ea:
         e6:cd:09:2b:7d:c0:50:a0:79:07:c9:78:18:0b:54:21:c1:93:
         04:57:f4:20:77:59:65:06:0e:ac:8d:d0:a0:27:69:ea:39:18:
         43:55:d5:00:40:91:45:e7:11:3b:c6:e1:a3:fb:5f:61:10:1f:
         03:4e:11:fc:d8:be:a1:5d:14:fb:68:5c:aa:42:93:72:c0:bc:
         10:8b:95:c5:09:5d:a9:56:10:a6:56:9d:9c:92:fd:ed:f5:f0:
         de:d6:22:31:7e:9f:b0:e6:7a:4d:5d:36:3b:fb:1a:cb:9b:37:
         58:1c:25:35:c4:d9:ad:e3:db:16:8f:44:90:ed:c5:1b:d2:a7:
         10:03:2e:6f:9a:4f:1d:f1:56:a4:c7:1c:bb:1d:7e:21:bb:2e:
         f4:c9:c6:b9:90:45:c1:73:c2:74:77:a7:a4:8a:60:f9:3a:52:
         d0:80:1a:95:43:a8:a2:f1:49:b3:a2:2c:9a:5d:79:fc:6e:58:
         a6:33:1f:84
-----BEGIN CERTIFICATE-----
MIIE0TCCA7mgAwIBAgICEAowDQYJKoZIhvcNAQELBQAwczELMAkGA1UEBhMCRlIx
DDAKBgNVBAgTA0lERjEOMAwGA1UEBxMFUGFyaXMxLzAtBgNVBAoTJkxvY2FsIE5P
REUtT1BDVUEgQ2VydGlmaWNhdGUgQXV0aG9yaXR5MRUwEwYDVQQDEwxOb2RlT1BD
VUEtQ0EwIhgPMjAxOTA3MjUxMzUxNDlaGA8yMDIwMDcyNDEzNTE0OVowNTELMAkG
A1UEBhMCRlIxEjAQBgNVBAoMCU5vZGVPUENVQTESMBAGA1UEAwwJTm9kZU9QQ1VB
MIIBIjANBgkqhkiG9w0BAQEFAAOCAQ8AMIIBCgKCAQEAz1/+KrpHlC/7CoeN42SF
o5MxUU6XpLTMn2DhNGdVdd1nNK5DwlAjbEfUfQSxVx5+tptMQUUHjUcQ42oog89D
X14MCgklEwsv+gdWLw9ToiwAy1vk7VbuP7Dv3iyeosCpdZ1dA2hYxgDp63zCO68f
S/QQGRLjKOSQQwQ7nq9RtOSyivkHMWJ3TwHy+IvXhCry+622DABnqVSeO0QQLa/e
aGneRkKydUQ+8qMRsjQ/oh/nOLEiKx96+a60Q+goQOQUyr6PzA0l5WGqER86y93B
kkh7K9KLTY8E561kOPwDfDe4ULlCeIGW/pu/Y2HTKjyWzQTc3mBY7GSNvwGhR4ci
+wIDAQABo4IBpzCCAaMwDAYDVR0TAQH/BAIwADAdBgNVHQ4EFgQUDcFEIHZN87ti
kROdoVLGnwtw63QwgaUGA1UdIwSBnTCBmoAUiEB0Wbbgy7XxvhFCPoNEh2RI3hqh
d6R1MHMxCzAJBgNVBAYTAkZSMQwwCgYDVQQIEwNJREYxDjAMBgNVBAcTBVBhcmlz
MS8wLQYDVQQKEyZMb2NhbCBOT0RFLU9QQ1VBIENlcnRpZmljYXRlIEF1dGhvcml0
eTEVMBMGA1UEAxMMTm9kZU9QQ1VBLUNBggkAo5jfwsXx17UwbAYDVR0RBGUwY4Y5
dXJuOjhjODU5MGNiZmFlYS5hbnQuYW1hem9uLmNvbTpOb2RlT1BDVUEtRGlzY292
ZXJ5U2VydmVygglsb2NhbGhvc3SCGzhjODU5MGNiZmFlYS5hbnQuYW1hem9uLmNv
bTAsBglghkgBhvhCAQ0EHxYdT3BlblNTTCBHZW5lcmF0ZWQgQ2VydGlmaWNhdGUw
DgYDVR0PAQH/BAQDAgL8MCAGA1UdJQEB/wQWMBQGCCsGAQUFBwMBBggrBgEFBQcD
AjANBgkqhkiG9w0BAQsFAAOCAQEA0RAlJKl+mBOTNL6LUgWowVn1MEsRxpowmj8w
XXbE4eC4Ki57sJyvWoh7hNhNyt7SqZLgBeIZPS7psfHYzB5FYS91nm3xfVjq5s0J
K33AUKB5B8l4GAtUIcGTBFf0IHdZZQYOrI3QoCdp6jkYQ1XVAECRRecRO8bho/tf
YRAfA04R/Ni+oV0U+2hcqkKTcsC8EIuVxQldqVYQpladnJL97fXw3tYiMX6fsOZ6
TV02O/say5s3WBwlNcTZrePbFo9EkO3FG9KnEAMub5pPHfFWpMccux1+Ibsu9MnG
uZBFwXPCdHenpIpg+TpS0IAalUOoovFJs6Isml15/G5YpjMfhA==
-----END CERTIFICATE-----
